S'3.2'
p1
.S'SLR'
p1
.S'\xd7M\xdbe\x0eO\xff(\x08\t[\xf0\xd2$I:'
p1
.(dp1
I0
(dp2
S'EXCEPTION'
p3
I-50
sS'SHORT'
p4
I-50
sS'CONST'
p5
I-50
sS'SETLIKE'
p6
I-50
sS'MAPLIKE'
p7
I-50
sS'VOID'
p8
I-50
sS'OBJECT'
p9
I-50
sS'STATIC'
p10
I-50
sS'DATE'
p11
I-50
sS'BYTE'
p12
I-50
sS'SETTER'
p13
I-50
sS'DOMSTRING'
p14
I-50
sS'CREATOR'
p15
I-50
sS'('
I-50
sS'REQUIRED'
p16
I-50
sS'UNSIGNED'
p17
I-50
sS'LONG'
p18
I-50
sS'READONLY'
p19
I-50
sS'SERIALIZER'
p20
I-50
sS'$end'
p21
I-2
sS'TYPEDEF'
p22
I-50
sS'string'
p23
I-50
sS'DICTIONARY'
p24
I-50
sS'SEQUENCE'
p25
I-50
sS'LEGACYITERABLE'
p26
I-50
sS'ENUM'
p27
I-50
sS'OCTET'
p28
I-50
sS'INHERIT'
p29
I-50
sS'LEGACYCALLER'
p30
I-50
sS'GETTER'
p31
I-50
sS'REGEXP'
p32
I-50
sS'['
I3
sS'OPTIONAL'
p33
I-50
sS'ITERABLE'
p34
I-50
sS'BYTESTRING'
p35
I-50
sS'PARTIAL'
p36
I-50
sS'STRINGIFIER'
p37
I-50
sS'ATTRIBUTE'
p38
I-50
sS'FLOAT'
p39
I-50
sS'CALLBACK'
p40
I-50
sS'BOOLEAN'
p41
I-50
sS'PROMISE'
p42
I-50
sS'error'
p43
I-50
sS'INTERFACE'
p44
I-50
sS'UNRESTRICTED'
p45
I-50
sS'identifier'
p46
I-50
sS'DOUBLE'
p47
I-50
sS'ANY'
p48
I-50
sS'DELETER'
p49
I-50
ssI1
(dp50
S'EXCEPTION'
p51
I13
sS'PARTIAL'
p52
I16
sS'DICTIONARY'
p53
I11
sS'ENUM'
p54
I12
sS'TYPEDEF'
p55
I15
sS'CALLBACK'
p56
I18
sS'error'
p57
I19
sS'INTERFACE'
p58
I20
sS'identifier'
p59
I21
ssI2
(dp60
S'$end'
p61
I0
ssI3
(dp62
S'identifier'
p63
I30
sS']'
I31
ssI4
(dp64
g22
I-8
sg36
I-8
sg24
I-8
sg27
I-8
sg3
I-8
sg40
I-8
sg43
I-8
sg44
I-8
sS'['
I-8
sg46
I-8
sg21
I-8
ssI5
(dp65
g22
I-3
sg36
I-3
sg24
I-3
sg27
I-3
sg3
I-3
sg40
I-3
sg43
I-3
sg44
I-3
sS'['
I-3
sg46
I-3
sg21
I-3
ssI6
(dp66
g22
I-5
sg36
I-5
sg24
I-5
sg27
I-5
sg3
I-5
sg40
I-5
sg43
I-5
sg44
I-5
sS'['
I-5
sg46
I-5
sg21
I-5
ssI7
(dp67
g22
I-7
sg36
I-7
sg24
I-7
sg27
I-7
sg3
I-7
sg40
I-7
sg43
I-7
sg44
I-7
sS'['
I-7
sg46
I-7
sg21
I-7
ssI8
(dp68
g22
I-12
sg36
I-12
sg24
I-12
sg27
I-12
sg3
I-12
sg40
I-12
sg43
I-12
sg44
I-12
sS'['
I-12
sg46
I-12
sg21
I-12
ssI9
(dp69
g3
I-50
sg4
I-50
sg5
I-50
sg6
I-50
sg7
I-50
sg8
I-50
sg9
I-50
sg10
I-50
sg11
I-50
sg12
I-50
sg13
I-50
sg14
I-50
sg15
I-50
sS'('
I-50
sg16
I-50
sg17
I-50
sg18
I-50
sg19
I-50
sg20
I-50
sg21
I-2
sg22
I-50
sg23
I-50
sg24
I-50
sg25
I-50
sg26
I-50
sg27
I-50
sg28
I-50
sg29
I-50
sg30
I-50
sg31
I-50
sg32
I-50
sS'['
I3
sg33
I-50
sg34
I-50
sg35
I-50
sg36
I-50
sg37
I-50
sg38
I-50
sg39
I-50
sg40
I-50
sg41
I-50
sg42
I-50
sg43
I-50
sg44
I-50
sg45
I-50
sg46
I-50
sg47
I-50
sg48
I-50
sg49
I-50
ssI10
(dp70
g22
I-6
sg36
I-6
sg24
I-6
sg27
I-6
sg3
I-6
sg40
I-6
sg43
I-6
sg44
I-6
sS'['
I-6
sg46
I-6
sg21
I-6
ssI11
(dp71
S'identifier'
p72
I34
sS'error'
p73
I33
ssI12
(dp74
S'identifier'
p75
I36
sS'error'
p76
I35
ssI13
(dp77
S'identifier'
p78
I37
ssI14
(dp79
g22
I-9
sg36
I-9
sg24
I-9
sg27
I-9
sg3
I-9
sg40
I-9
sg43
I-9
sg44
I-9
sS'['
I-9
sg46
I-9
sg21
I-9
ssI15
(dp80
g47
I-187
sg35
I-187
sg4
I-187
sg14
I-187
sg25
I-187
sS'('
I-187
sg9
I-187
sg28
I-187
sg17
I-187
sg18
I-187
sg39
I-187
sg41
I-187
sg42
I-187
sg45
I-187
sS'error'
p81
I39
sg11
I-187
sg32
I-187
sS'['
I40
sg46
I-187
sg12
I-187
sg48
I-187
ssI16
(dp82
S'INTERFACE'
p83
I45
sS'DICTIONARY'
p84
I42
sS'error'
p85
I44
ssI17
(dp86
g22
I-4
sg36
I-4
sg24
I-4
sg27
I-4
sg3
I-4
sg40
I-4
sg43
I-4
sg44
I-4
sS'['
I-4
sg46
I-4
sg21
I-4
ssI18
(dp87
g58
I20
sS'identifier'
p88
I50
ssI19
(dp89
S';'
I51
ssI20
(dp90
S'identifier'
p91
I52
ssI21
(dp92
S'IMPLEMENTS'
p93
I53
ssI22
(dp94
S']'
I-62
sS','
I-62
ssI23
(dp95
S']'
I-56
sS','
I55
ssI24
(dp96
S']'
I-63
sS','
I-63
ssI25
(dp97
S']'
I-60
sS','
I-60
ssI26
(dp98
S']'
I-59
sS','
I-59
ssI27
(dp99
S']'
I-61
sS','
I-61
ssI28
(dp100
S']'
I-58
sS','
I-58
ssI29
(dp101
S']'
I-64
sS','
I-64
ssI30
(dp102
S'('
I56
sS'='
I57
sS']'
I-248
sS','
I-248
ssI31
(dp103
g3
I-49
sg4
I-49
sg5
I-49
sg6
I-49
sg7
I-49
sg8
I-49
sg9
I-49
sg10
I-49
sg11
I-49
sg13
I-49
sg14
I-49
sg15
I-49
sS'('
I-49
sg16
I-49
sg17
I-49
sg18
I-49
sg19
I-49
sg20
I-49
sg22
I-49
sg23
I-49
sg24
I-49
sg25
I-49
sg26
I-49
sg27
I-49
sg28
I-49
sg29
I-49
sg30
I-49
sg31
I-49
sg32
I-49
sg12
I-49
sg33
I-49
sg34
I-49
sg35
I-49
sg36
I-49
sg37
I-49
sg38
I-49
sg39
I-49
sg40
I-49
sg41
I-49
sg42
I-49
sg43
I-49
sg44
I-49
sg45
I-49
sg46
I-49
sg47
I-49
sg48
I-49
sg49
I-49
ssI32
(dp104
g21
I-1
ssI33
(dp105
S';'
I58
ssI34
(dp106
S'{'
I-95
sS':'
I59
ssI35
(dp107
S';'
I61
ssI36
(dp108
S'{'
I62
ssI37
(dp109
S'{'
I-95
sS':'
I59
ssI38
(dp110
S'BYTESTRING'
p111
I80
sS'SHORT'
p112
I64
sS'DOMSTRING'
p113
I71
sS'SEQUENCE'
p114
I76
sS'('
I73
sS'OBJECT'
p115
I65
sS'OCTET'
p116
I77
sS'UNSIGNED'
p117
I67
sS'LONG'
p118
I74
sS'FLOAT'
p119
I87
sS'BOOLEAN'
p120
I90
sS'PROMISE'
p121
I91
sS'UNRESTRICTED'
p122
I92
sS'DOUBLE'
p123
I86
sS'DATE'
p124
I69
sS'REGEXP'
p125
I81
sS'BYTE'
p126
I82
sS'identifier'
p127
I85
sS'ANY'
p128
I89
ssI39
(dp129
S';'
I93
ssI40
(dp130
g63
I30
ssI41
(dp131
g22
I-30
sg36
I-30
sg24
I-30
sg27
I-30
sg3
I-30
sg40
I-30
sg43
I-30
sg44
I-30
sS'['
I-30
sg46
I-30
sg21
I-30
ssI42
(dp132
S'identifier'
p133
I96
sS'error'
p134
I95
ssI43
(dp135
g22
I-23
sg36
I-23
sg24
I-23
sg27
I-23
sg3
I-23
sg40
I-23
sg43
I-23
sg44
I-23
sS'['
I-23
sg46
I-23
sg21
I-23
ssI44
(dp136
g22
I-25
sg36
I-25
sg24
I-25
sg27
I-25
sg3
I-25
sg40
I-25
sg43
I-25
sg44
I-25
sS'['
I-25
sg46
I-25
sg21
I-25
ssI45
(dp137
S'identifier'
p138
I97
ssI46
(dp139
g22
I-31
sg36
I-31
sg24
I-31
sg27
I-31
sg3
I-31
sg40
I-31
sg43
I-31
sg44
I-31
sS'['
I-31
sg46
I-31
sg21
I-31
ssI47
(dp140
g22
I-11
sg36
I-11
sg24
I-11
sg27
I-11
sg3
I-11
sg40
I-11
sg43
I-11
sg44
I-11
sS'['
I-11
sg46
I-11
sg21
I-11
ssI48
(dp141
g22
I-18
sg36
I-18
sg24
I-18
sg27
I-18
sg3
I-18
sg40
I-18
sg43
I-18
sg44
I-18
sS'['
I-18
sg46
I-18
sg21
I-18
ssI49
(dp142
g22
I-19
sg36
I-19
sg24
I-19
sg27
I-19
sg3
I-19
sg40
I-19
sg43
I-19
sg44
I-19
sS'['
I-19
sg46
I-19
sg21
I-19
ssI50
(dp143
S'='
I98
ssI51
(dp144
g22
I-10
sg36
I-10
sg24
I-10
sg27
I-10
sg3
I-10
sg40
I-10
sg43
I-10
sg44
I-10
sS'['
I-10
sg46
I-10
sg21
I-10
ssI52
(dp145
S'{'
I-95
sS':'
I59
ssI53
(dp146
S'identifier'
p147
I100
ssI54
(dp148
S']'
I101
ssI55
(dp149
g63
I30
sS']'
I-55
sS'error'
p150
I103
ssI56
(dp151
g3
I-50
sg4
I-50
sg5
I-50
sg6
I-50
sg7
I-50
sg8
I-50
sg9
I-50
sg10
I-50
sg11
I-50
sg12
I-50
sg13
I-50
sg14
I-50
sg15
I-50
sS')'
I-164
sS'('
I-50
sg16
I-50
sg17
I-50
sg18
I-50
sg19
I-50
sg20
I-50
sg22
I-50
sg23
I-50
sg24
I-50
sg25
I-50
sg26
I-50
sg27
I-50
sg28
I-50
sg29
I-50
sg30
I-50
sg31
I-50
sg32
I-50
sS'['
I3
sg33
I-50
sg34
I-50
sg35
I-50
sg36
I-50
sg37
I-50
sg38
I-50
sg39
I-50
sg40
I-50
sg41
I-50
sg42
I-50
sS'error'
p152
I107
sg44
I-50
sg45
I-50
sg46
I-50
sg47
I-50
sg48
I-50
sg49
I-50
ssI57
(dp153
S'('
I109
sS'identifier'
p154
I111
sS'string'
p155
I108
ssI58
(dp156
g22
I-53
sg36
I-53
sg24
I-53
sg27
I-53
sg3
I-53
sg40
I-53
sg43
I-53
sg44
I-53
sS'['
I-53
sg46
I-53
sg21
I-53
ssI59
(dp157
S'identifier'
p158
I112
ssI60
(dp159
S'{'
I113
ssI61
(dp160
g22
I-97
sg36
I-97
sg24
I-97
sg27
I-97
sg3
I-97
sg40
I-97
sg43
I-97
sg44
I-97
sS'['
I-97
sg46
I-97
sg21
I-97
ssI62
(dp161
g3
I-50
sg4
I-50
sg5
I-50
sg6
I-50
sg7
I-50
sg8
I-50
sg9
I-50
sg10
I-50
sg11
I-50
sg12
I-50
sg13
I-50
sg14
I-50
sg15
I-50
sS'('
I-50
sg16
I-50
sg17
I-50
sg18
I-50
sg19
I-50
sg20
I-50
sg22
I-50
sg23
I-50
sg24
I-50
sg25
I-50
sg26
I-50
sg27
I-50
sg28
I-50
sg29
I-50
sg30
I-50
sg31
I-50
sg32
I-50
sS'['
I3
sg33
I-50
sg34
I-50
sg35
I-50
sg36
I-50
sg37
I-50
sg38
I-50
sg39
I-50
sg40
I-50
sg41
I-50
sg42
I-50
sg43
I-50
sg44
I-50
sg45
I-50
sg46
I-50
sg47
I-50
sg48
I-50
sg49
I-50
ssI63
(dp162
S'{'
I116
ssI64
(dp163
g3
I-233
sg5
I-233
sg10
I-233
sg13
I-233
sg15
I-233
sS')'
I-233
sS'('
I-233
sg16
I-233
sS','
I-233
sS'ELLIPSIS'
p164
I-233
sg20
I-233
sS'>'
I-233
sg22
I-233
sg24
I-233
sg27
I-233
sg29
I-233
sg30
I-233
sg31
I-233
sS'['
I-233
sS'IMPLEMENTS'
p165
I-233
sg36
I-233
sg37
I-233
sg38
I-233
sg40
I-233
sS'?'
I-233
sg45
I-233
sg46
I-233
sS'OR'
p166
I-233
sg49
I-233
ssI65
(dp167
g3
I-224
sg5
I-224
sg10
I-224
sg13
I-224
sg15
I-224
sS')'
I-224
sS'('
I-224
sg16
I-224
sS','
I-224
sg164
I-224
sg20
I-224
sS'>'
I-224
sg22
I-224
sg24
I-224
sg27
I-224
sg29
I-224
sg30
I-224
sg31
I-224
sS'['
I-224
sg165
I-224
sg36
I-224
sg37
I-224
sg38
I-224
sg40
I-224
sS'?'
I-224
sg45
I-224
sg46
I-224
sg166
I-224
sg49
I-224
ssI66
(dp168
g3
I-82
sg5
I-82
sg10
I-82
sg13
I-82
sg15
I-82
sS')'
I-82
sS'('
I-82
sg16
I-82
sS','
I-82
sg164
I-82
sg20
I-82
sS'>'
I-82
sg22
I-82
sg24
I-82
sg27
I-82
sg29
I-82
sg30
I-82
sg31
I-82
sS'['
I118
sg165
I-82
sg36
I-82
sg37
I-82
sg38
I-82
sg40
I-82
sS'?'
I119
sg45
I-82
sg46
I-82
sg166
I-82
sg49
I-82
ssI67
(dp169
g112
I64
sg118
I74
ssI68
(dp170
g3
I-207
sg5
I-207
sg10
I-207
sg13
I-207
sg15
I-207
sS'('
I-207
sg16
I-207
sS','
I-207
sg164
I-207
sg20
I-207
sS'>'
I-207
sg22
I-207
sg24
I-207
sg27
I-207
sg29
I-207
sg30
I-207
sg31
I-207
sg165
I-207
sg36
I-207
sg37
I-207
sg38
I-207
sg40
I-207
sg45
I-207
sg46
I-207
sg49
I-207
ssI69
(dp171
g3
I-225
sg5
I-225
sg10
I-225
sg13
I-225
sg15
I-225
sS')'
I-225
sS'('
I-225
sg16
I-225
sS','
I-225
sg164
I-225
sg20
I-225
sS'>'
I-225
sg22
I-225
sg24
I-225
sg27
I-225
sg29
I-225
sg30
I-225
sg31
I-225
sS'['
I-225
sg165
I-225
sg36
I-225
sg37
I-225
sg38
I-225
sg40
I-225
sS'?'
I-225
sg45
I-225
sg46
I-225
sg166
I-225
sg49
I-225
ssI70
(dp172
S'identifier'
p173
I121
ssI71
(dp174
g3
I-223
sg5
I-223
sg10
I-223
sg13
I-223
sg15
I-223
sS')'
I-223
sS'('
I-223
sg16
I-223
sS','
I-223
sg164
I-223
sg20
I-223
sS'>'
I-223
sg22
I-223
sg24
I-223
sg27
I-223
sg29
I-223
sg30
I-223
sg31
I-223
sS'['
I-223
sg165
I-223
sg36
I-223
sg37
I-223
sg38
I-223
sg40
I-223
sS'?'
I-223
sg45
I-223
sg46
I-223
sg166
I-223
sg49
I-223
ssI72
(dp175
g3
I-228
sg5
I-228
sg10
I-228
sg13
I-228
sg15
I-228
sS')'
I-228
sS'('
I-228
sg16
I-228
sS','
I-228
sg164
I-228
sg20
I-228
sS'>'
I-228
sg22
I-228
sg24
I-228
sg27
I-228
sg29
I-228
sg30
I-228
sg31
I-228
sS'['
I-228
sg165
I-228
sg36
I-228
sg37
I-228
sg38
I-228
sg40
I-228
sS'?'
I-228
sg45
I-228
sg46
I-228
sg166
I-228
sg49
I-228
ssI73
(dp176
g111
I80
sg112
I64
sg113
I71
sg114
I76
sS'('
I73
sg115
I65
sg116
I77
sg117
I67
sg118
I74
sg119
I87
sg120
I90
sg121
I91
sg122
I92
sg123
I86
sg124
I69
sg125
I81
sg126
I82
sg127
I85
sS'ANY'
p177
I125
ssI74
(dp178
g3
I-236
sg5
I-236
sg10
I-236
sg13
I-236
sg15
I-236
sS')'
I-236
sS'('
I-236
sg16
I-236
sS','
I-236
sS'LONG'
p179
I127
sg164
I-236
sg20
I-236
sS'>'
I-236
sg22
I-236
sg24
I-236
sg27
I-236
sg29
I-236
sg30
I-236
sg31
I-236
sS'['
I-236
sg165
I-236
sg36
I-236
sg37
I-236
sg38
I-236
sg40
I-236
sS'?'
I-236
sg45
I-236
sg46
I-236
sg166
I-236
sg49
I-236
ssI75
(dp180
g3
I-209
sg5
I-209
sg10
I-209
sg13
I-209
sg15
I-209
sS'('
I-209
sg16
I-209
sS','
I-209
sg164
I-209
sg20
I-209
sS'>'
I-209
sg22
I-209
sg24
I-209
sg27
I-209
sg29
I-209
sg30
I-209
sg31
I-209
sg165
I-209
sg36
I-209
sg37
I-209
sg38
I-209
sg40
I-209
sg45
I-209
sg46
I-209
sg49
I-209
ssI76
(dp181
S'<'
I128
ssI77
(dp182
g3
I-221
sg5
I-221
sg10
I-221
sg13
I-221
sg15
I-221
sS')'
I-221
sS'('
I-221
sg16
I-221
sS','
I-221
sg164
I-221
sg20
I-221
sS'>'
I-221
sg22
I-221
sg24
I-221
sg27
I-221
sg29
I-221
sg30
I-221
sg31
I-221
sS'['
I-221
sg165
I-221
sg36
I-221
sg37
I-221
sg38
I-221
sg40
I-221
sS'?'
I-221
sg45
I-221
sg46
I-221
sg166
I-221
sg49
I-221
ssI78
(dp183
g3
I-242
sg5
I-242
sg10
I-242
sg13
I-242
sg15
I-242
sS')'
I-242
sS'('
I-242
sg16
I-242
sS','
I-242
sg164
I-242
sg20
I-242
sS'>'
I-242
sg22
I-242
sg24
I-242
sg27
I-242
sg29
I-242
sg30
I-242
sg31
I-242
sg165
I-242
sg36
I-242
sg37
I-242
sg38
I-242
sg40
I-242
sS'?'
I130
sg45
I-242
sg46
I-242
sg166
I-242
sg49
I-242
ssI79
(dp184
g3
I-232
sg5
I-232
sg10
I-232
sg13
I-232
sg15
I-232
sS')'
I-232
sS'('
I-232
sg16
I-232
sS','
I-232
sg164
I-232
sg20
I-232
sS'>'
I-232
sg22
I-232
sg24
I-232
sg27
I-232
sg29
I-232
sg30
I-232
sg31
I-232
sS'['
I-232
sg165
I-232
sg36
I-232
sg37
I-232
sg38
I-232
sg40
I-232
sS'?'
I-232
sg45
I-232
sg46
I-232
sg166
I-232
sg49
I-232
ssI80
(dp185
g3
I-222
sg5
I-222
sg10
I-222
sg13
I-222
sg15
I-222
sS')'
I-222
sS'('
I-222
sg16
I-222
sS','
I-222
sg164
I-222
sg20
I-222
sS'>'
I-222
sg22
I-222
sg24
I-222
sg27
I-222
sg29
I-222
sg30
I-222
sg31
I-222
sS'['
I-222
sg165
I-222
sg36
I-222
sg37
I-222
sg38
I-222
sg40
I-222
sS'?'
I-222
sg45
I-222
sg46
I-222
sg166
I-222
sg49
I-222
ssI81
(dp186
g3
I-226
sg5
I-226
sg10
I-226
sg13
I-226
sg15
I-226
sS')'
I-226
sS'('
I-226
sg16
I-226
sS','
I-226
sg164
I-226
sg20
I-226
sS'>'
I-226
sg22
I-226
sg24
I-226
sg27
I-226
sg29
I-226
sg30
I-226
sg31
I-226
sS'['
I-226
sg165
I-226
sg36
I-226
sg37
I-226
sg38
I-226
sg40
I-226
sS'?'
I-226
sg45
I-226
sg46
I-226
sg166
I-226
sg49
I-226
ssI82
(dp187
g3
I-220
sg5
I-220
sg10
I-220
sg13
I-220
sg15
I-220
sS')'
I-220
sS'('
I-220
sg16
I-220
sS','
I-220
sg164
I-220
sg20
I-220
sS'>'
I-220
sg22
I-220
sg24
I-220
sg27
I-220
sg29
I-220
sg30
I-220
sg31
I-220
sS'['
I-220
sg165
I-220
sg36
I-220
sg37
I-220
sg38
I-220
sg40
I-220
sS'?'
I-220
sg45
I-220
sg46
I-220
sg166
I-220
sg49
I-220
ssI83
(dp188
g3
I-82
sg5
I-82
sg10
I-82
sg13
I-82
sg15
I-82
sS')'
I-82
sS'('
I-82
sg16
I-82
sS','
I-82
sg164
I-82
sg20
I-82
sS'>'
I-82
sg22
I-82
sg24
I-82
sg27
I-82
sg29
I-82
sg30
I-82
sg31
I-82
sS'['
I118
sg165
I-82
sg36
I-82
sg37
I-82
sg38
I-82
sg40
I-82
sS'?'
I119
sg45
I-82
sg46
I-82
sg166
I-82
sg49
I-82
ssI84
(dp189
g3
I-218
sg5
I-218
sg10
I-218
sg13
I-218
sg15
I-218
sS')'
I-218
sS'('
I-218
sg16
I-218
sS','
I-218
sg164
I-218
sg20
I-218
sS'>'
I-218
sg22
I-218
sg24
I-218
sg27
I-218
sg29
I-218
sg30
I-218
sg31
I-218
sS'['
I-218
sg165
I-218
sg36
I-218
sg37
I-218
sg38
I-218
sg40
I-218
sS'?'
I-218
sg45
I-218
sg46
I-218
sg166
I-218
sg49
I-218
ssI85
(dp190
g3
I-82
sg5
I-82
sg10
I-82
sg13
I-82
sg15
I-82
sS')'
I-82
sS'('
I-82
sg16
I-82
sS','
I-82
sg164
I-82
sg20
I-82
sS'>'
I-82
sg22
I-82
sg24
I-82
sg27
I-82
sg29
I-82
sg30
I-82
sg31
I-82
sS'['
I118
sg165
I-82
sg36
I-82
sg37
I-82
sg38
I-82
sg40
I-82
sS'?'
I119
sg45
I-82
sg46
I-82
sg166
I-82
sg49
I-82
ssI86
(dp191
g3
I-230
sg5
I-230
sg10
I-230
sg13
I-230
sg15
I-230
sS')'
I-230
sS'('
I-230
sg16
I-230
sS','
I-230
sg164
I-230
sg20
I-230
sS'>'
I-230
sg22
I-230
sg24
I-230
sg27
I-230
sg29
I-230
sg30
I-230
sg31
I-230
sS'['
I-230
sg165
I-230
sg36
I-230
sg37
I-230
sg38
I-230
sg40
I-230
sS'?'
I-230
sg45
I-230
sg46
I-230
sg166
I-230
sg49
I-230
ssI87
(dp192
g3
I-229
sg5
I-229
sg10
I-229
sg13
I-229
sg15
I-229
sS')'
I-229
sS'('
I-229
sg16
I-229
sS','
I-229
sg164
I-229
sg20
I-229
sS'>'
I-229
sg22
I-229
sg24
I-229
sg27
I-229
sg29
I-229
sg30
I-229
sg31
I-229
sS'['
I-229
sg165
I-229
sg36
I-229
sg37
I-229
sg38
I-229
sg40
I-229
sS'?'
I-229
sg45
I-229
sg46
I-229
sg166
I-229
sg49
I-229
ssI88
(dp193
g3
I-217
sg5
I-217
sg10
I-217
sg13
I-217
sg15
I-217
sS')'
I-217
sS'('
I-217
sg16
I-217
sS','
I-217
sg164
I-217
sg20
I-217
sS'>'
I-217
sg22
I-217
sg24
I-217
sg27
I-217
sg29
I-217
sg30
I-217
sg31
I-217
sS'['
I-217
sg165
I-217
sg36
I-217
sg37
I-217
sg38
I-217
sg40
I-217
sS'?'
I-217
sg45
I-217
sg46
I-217
sg166
I-217
sg49
I-217
ssI89
(dp194
g3
I-240
sg5
I-240
sg10
I-240
sg13
I-240
sg15
I-240
sS')'
I-240
sS'('
I-240
sg16
I-240
sS','
I-240
sg164
I-240
sg20
I-240
sS'>'
I-240
sg22
I-240
sg24
I-240
sg27
I-240
sg29
I-240
sg30
I-240
sg31
I-240
sS'['
I133
sg165
I-240
sg36
I-240
sg37
I-240
sg38
I-240
sg40
I-240
sg45
I-240
sg46
I-240
sg166
I-240
sg49
I-240
ssI90
(dp195
g3
I-219
sg5
I-219
sg10
I-219
sg13
I-219
sg15
I-219
sS')'
I-219
sS'('
I-219
sg16
I-219
sS','
I-219
sg164
I-219
sg20
I-219
sS'>'
I-219
sg22
I-219
sg24
I-219
sg27
I-219
sg29
I-219
sg30
I-219
sg31
I-219
sS'['
I-219
sg165
I-219
sg36
I-219
sg37
I-219
sg38
I-219
sg40
I-219
sS'?'
I-219
sg45
I-219
sg46
I-219
sg166
I-219
sg49
I-219
ssI91
(dp196
g3
I-238
sg5
I-238
sg10
I-238
sg13
I-238
sg15
I-238
sS')'
I-238
sS'('
I-238
sg16
I-238
sS','
I-238
sg164
I-238
sS'<'
I135
sg20
I-238
sS'>'
I-238
sg22
I-238
sg24
I-238
sg27
I-238
sg29
I-238
sg30
I-238
sg31
I-238
sg165
I-238
sg36
I-238
sg37
I-238
sg38
I-238
sg40
I-238
sS'?'
I-238
sg45
I-238
sg46
I-238
sg166
I-238
sg49
I-238
ssI92
(dp197
g123
I86
sg119
I87
ssI93
(dp198
g22
I-105
sg36
I-105
sg24
I-105
sg27
I-105
sg3
I-105
sg40
I-105
sg43
I-105
sg44
I-105
sS'['
I-105
sg46
I-105
sg21
I-105
ssI94
(dp199
S']'
I-56
sS','
I138
ssI95
(dp200
S';'
I139
ssI96
(dp201
S'{'
I140
ssI97
(dp202
S'{'
I141
ssI98
(dp203
g111
I80
sg112
I64
sg113
I71
sg114
I76
sS'('
I73
sS'VOID'
p204
I142
sg115
I65
sg116
I77
sg117
I67
sg118
I74
sg119
I87
sg120
I90
sg121
I91
sg122
I92
sg123
I86
sg124
I69
sg125
I81
sg126
I82
sg127
I85
sg128
I89
ssI99
(dp205
S'{'
I145
ssI100
(dp206
S';'
I146
ssI101
(dp207
g3
I-48
sg4
I-48
sg5
I-48
sg6
I-48
sg7
I-48
sg8
I-48
sg9
I-48
sg10
I-48
sg11
I-48
sg13
I-48
sg14
I-48
sg15
I-48
sS'('
I-48
sg16
I-48
sg17
I-48
sg18
I-48
sg19
I-48
sg20
I-48
sg22
I-48
sg23
I-48
sg24
I-48
sg25
I-48
sg26
I-48
sg27
I-48
sg28
I-48
sg29
I-48
sg30
I-48
sg31
I-48
sg32
I-48
sg12
I-48
sg33
I-48
sg34
I-48
sg35
I-48
sg36
I-48
sg37
I-48
sg38
I-48
sg39
I-48
sg40
I-48
sg41
I-48
sg42
I-48
sg43
I-48
sg44
I-48
sg45
I-48
sg46
I-48
sg47
I-48
sg48
I-48
sg49
I-48
ssI102
(dp208
S']'
I-56
sS','
I138
ssI103
(dp209
g3
I-51
sg4
I-51
sg5
I-51
sg6
I-51
sg7
I-51
sg8
I-51
sg9
I-51
sg10
I-51
sg11
I-51
sg13
I-51
sg14
I-51
sg15
I-51
sS'('
I-51
sg16
I-51
sg17
I-51
sg18
I-51
sg19
I-51
sg20
I-51
sg22
I-51
sg23
I-51
sg24
I-51
sg25
I-51
sg26
I-51
sg27
I-51
sg28
I-51
sg29
I-51
sg30
I-51
sg31
I-51
sg32
I-51
sg12
I-51
sg33
I-51
sg34
I-51
sg35
I-51
sg36
I-51
sg37
I-51
sg38
I-51
sg39
I-51
sg40
I-51
sg41
I-51
sg42
I-51
sg43
I-51
sg44
I-51
sg45
I-51
sg46
I-51
sg47
I-51
sg48
I-51
sg49
I-51
ssI104
(dp210
S')'
I148
ssI105
(dp211
S')'
I-167
sS','
I149
ssI106
(dp212
g111
I80
sg112
I64
sg113
I71
sg114
I76
sS'('
I73
sg115
I65
sg116
I77
sg117
I67
sg118
I74
sg119
I87
sg120
I90
sg121
I91
sg122
I92
sg123
I86
sg124
I69
sg125
I81
sg126
I82
sg127
I85
sS'OPTIONAL'
p213
I152
sg128
I89
ssI107
(dp214
S')'
I-165
ssI108
(dp215
S')'
I-24
sS';'
I-24
sS']'
I-24
sS','
I-24
ssI109
(dp216
S'identifier'
p217
I157
sg155
I108
ssI110
(dp218
S']'
I-86
sS','
I-86
ssI111
(dp219
S'('
I158
sS']'
I-250
sS','
I-250
ssI112
(dp220
S'{'
I-94
ssI113
(dp221
g3
I-50
sg4
I-50
sg5
I-50
sg6
I-50
sg7
I-50
sg8
I-50
sg9
I-50
sg10
I-50
sg11
I-50
sg12
I-50
sg13
I-50
sg14
I-50
sg15
I-50
sS'('
I-50
sg16
I-50
sg17
I-50
sg18
I-50
sg19
I-50
sg20
I-50
sg22
I-50
sg23
I-50
sg24
I-50
sg25
I-50
sg26
I-50
sg27
I-50
sg28
I-50
sg29
I-50
sg30
I-50
sg31
I-50
sg47
I-50
sg32
I-50
sS'['
I3
sg33
I-50
sg34
I-50
sg35
I-50
sg36
I-50
sg37
I-50
sg38
I-50
sg39
I-50
sg40
I-50
sg41
I-50
sg42
I-50
sS'error'
p222
I161
sg44
I-50
sg45
I-50
sg46
I-50
sS'}'
I-66
sg48
I-50
sg49
I-50
ssI114
(dp223
S'}'
I162
ssI115
(dp224
S'string'
p225
I163
ssI116
(dp226
g3
I-50
sg4
I-50
sg5
I-50
sg6
I-50
sg7
I-50
sg8
I-50
sg9
I-50
sg10
I-50
sg11
I-50
sg12
I-50
sg13
I-50
sg14
I-50
sg15
I-50
sS'('
I-50
sg16
I-50
sg17
I-50
sg18
I-50
sg19
I-50
sg20
I-50
sg22
I-50
sg23
I-50
sg24
I-50
sg25
I-50
sg26
I-50
sg27
I-50
sg28
I-50
sg29
I-50
sg30
I-50
sg31
I-50
sg47
I-50
sg32
I-50
sS'['
I3
sg33
I-50
sg34
I-50
sg35
I-50
sg36
I-50
sg37
I-50
sg38
I-50
sg39
I-50
sg40
I-50
sg41
I-50
sg42
I-50
sS'error'
p227
I166
sg44
I-50
sg45
I-50
sg46
I-50
sS'}'
I-89
sg48
I-50
sg49
I-50
ssI117
(dp228
g3
I-211
sg5
I-211
sg10
I-211
sg13
I-211
sg15
I-211
sS')'
I-211
sS'('
I-211
sg16
I-211
sS','
I-211
sg164
I-211
sg20
I-211
sS'>'
I-211
sg22
I-211
sg24
I-211
sg27
I-211
sg29
I-211
sg30
I-211
sg31
I-211
sg165
I-211
sg36
I-211
sg37
I-211
sg38
I-211
sg40
I-211
sg45
I-211
sg46
I-211
sg166
I-211
sg49
I-211
ssI118
(dp229
S']'
I167
ssI119
(dp230
g3
I-240
sg5
I-240
sg10
I-240
sg13
I-240
sg15
I-240
sS')'
I-240
sS'('
I-240
sg16
I-240
sS','
I-240
sg164
I-240
sg20
I-240
sS'>'
I-240
sg22
I-240
sg24
I-240
sg27
I-240
sg29
I-240
sg30
I-240
sg31
I-240
sS'['
I133
sg165
I-240
sg36
I-240
sg37
I-240
sg38
I-240
sg40
I-240
sg45
I-240
sg46
I-240
sg166
I-240
sg49
I-240
ssI120
(dp231
g3
I-231
sg5
I-231
sg10
I-231
sg13
I-231
sg15
I-231
sS')'
I-231
sS'('
I-231
sg16
I-231
sS','
I-231
sg164
I-231
sg20
I-231
sS'>'
I-231
sg22
I-231
sg24
I-231
sg27
I-231
sg29
I-231
sg30
I-231
sg31
I-231
sS'['
I-231
sg165
I-231
sg36
I-231
sg37
I-231
sg38
I-231
sg40
I-231
sS'?'
I-231
sg45
I-231
sg46
I-231
sg166
I-231
sg49
I-231
ssI121
(dp232
S';'
I169
ssI122
(dp233
g3
I-82
sg5
I-82
sg10
I-82
sg13
I-82
sg15
I-82
sS')'
I-82
sS'('
I-82
sg16
I-82
sS','
I-82
sg164
I-82
sg20
I-82
sS'>'
I-82
sg22
I-82
sg24
I-82
sg27
I-82
sg29
I-82
sg30
I-82
sg31
I-82
sS'['
I118
sg165
I-82
sg36
I-82
sg37
I-82
sg38
I-82
sg40
I-82
sS'?'
I119
sg45
I-82
sg46
I-82
sg166
I-82
sg49
I-82
ssI123
(dp234
S'OR'
p235
I171
ssI124
(dp236
S')'
I-71
sg166
I-71
ssI125
(dp237
S'['
I172
ssI126
(dp238
g3
I-234
sg5
I-234
sg10
I-234
sg13
I-234
sg15
I-234
sS')'
I-234
sS'('
I-234
sg16
I-234
sS','
I-234
sg164
I-234
sg20
I-234
sS'>'
I-234
sg22
I-234
sg24
I-234
sg27
I-234
sg29
I-234
sg30
I-234
sg31
I-234
sS'['
I-234
sg165
I-234
sg36
I-234
sg37
I-234
sg38
I-234
sg40
I-234
sS'?'
I-234
sg45
I-234
sg46
I-234
sg166
I-234
sg49
I-234
ssI127
(dp239
g3
I-235
sg5
I-235
sg10
I-235
sg13
I-235
sg15
I-235
sS')'
I-235
sS'('
I-235
sg16
I-235
sS','
I-235
sg164
I-235
sg20
I-235
sS'>'
I-235
sg22
I-235
sg24
I-235
sg27
I-235
sg29
I-235
sg30
I-235
sg31
I-235
sS'['
I-235
sg165
I-235
sg36
I-235
sg37
I-235
sg38
I-235
sg40
I-235
sS'?'
I-235
sg45
I-235
sg46
I-235
sg166
I-235
sg49
I-235
ssI128
(dp240
g111
I80
sg112
I64
sg113
I71
sg114
I76
sS'('
I73
sg115
I65
sg116
I77
sg117
I67
sg118
I74
sg119
I87
sg120
I90
sg121
I91
sg122
I92
sg123
I86
sg124
I69
sg125
I81
sg126
I82
sg127
I85
sg128
I89
ssI129
(dp241
g3
I-212
sg5
I-212
sg10
I-212
sg13
I-212
sg15
I-212
sS')'
I-212
sS'('
I-212
sg16
I-212
sS','
I-212
sg164
I-212
sg20
I-212
sS'>'
I-212
sg22
I-212
sg24
I-212
sg27
I-212
sg29
I-212
sg30
I-212
sg31
I-212
sg165
I-212
sg36
I-212
sg37
I-212
sg38
I-212
sg40
I-212
sg45
I-212
sg46
I-212
sg166
I-212
sg49
I-212
ssI130
(dp242
g3
I-241
sg5
I-241
sg10
I-241
sg13
I-241
sg15
I-241
sS')'
I-241
sS'('
I-241
sg16
I-241
sS','
I-241
sg164
I-241
sg20
I-241
sS'>'
I-241
sg22
I-241
sg24
I-241
sg27
I-241
sg29
I-241
sg30
I-241
sg31
I-241
sg165
I-241
sg36
I-241
sg37
I-241
sg38
I-241
sg40
I-241
sg45
I-241
sg46
I-241
sg166
I-241
sg49
I-241
ssI131
(dp243
g3
I-208
sg5
I-208
sg10
I-208
sg13
I-208
sg15
I-208
sS'('
I-208
sg16
I-208
sS','
I-208
sg164
I-208
sg20
I-208
sS'>'
I-208
sg22
I-208
sg24
I-208
sg27
I-208
sg29
I-208
sg30
I-208
sg31
I-208
sg165
I-208
sg36
I-208
sg37
I-208
sg38
I-208
sg40
I-208
sg45
I-208
sg46
I-208
sg49
I-208
ssI132
(dp244
g3
I-213
sg5
I-213
sg10
I-213
sg13
I-213
sg15
I-213
sS')'
I-213
sS'('
I-213
sg16
I-213
sS','
I-213
sg164
I-213
sg20
I-213
sS'>'
I-213
sg22
I-213
sg24
I-213
sg27
I-213
sg29
I-213
sg30
I-213
sg31
I-213
sg165
I-213
sg36
I-213
sg37
I-213
sg38
I-213
sg40
I-213
sg45
I-213
sg46
I-213
sg166
I-213
sg49
I-213
ssI133
(dp245
S']'
I174
ssI134
(dp246
g3
I-210
sg5
I-210
sg10
I-210
sg13
I-210
sg15
I-210
sS'('
I-210
sg16
I-210
sS','
I-210
sg164
I-210
sg20
I-210
sS'>'
I-210
sg22
I-210
sg24
I-210
sg27
I-210
sg29
I-210
sg30
I-210
sg31
I-210
sg165
I-210
sg36
I-210
sg37
I-210
sg38
I-210
sg40
I-210
sg45
I-210
sg46
I-210
sg49
I-210
ssI135
(dp247
g111
I80
sg112
I64
sg113
I71
sg114
I76
sS'('
I73
sg204
I142
sg115
I65
sg116
I77
sg117
I67
sg118
I74
sg119
I87
sg120
I90
sg121
I91
sg122
I92
sg123
I86
sg124
I69
sg125
I81
sg126
I82
sg127
I85
sg128
I89
ssI136
(dp248
g3
I-227
sg5
I-227
sg10
I-227
sg13
I-227
sg15
I-227
sS')'
I-227
sS'('
I-227
sg16
I-227
sS','
I-227
sg164
I-227
sg20
I-227
sS'>'
I-227
sg22
I-227
sg24
I-227
sg27
I-227
sg29
I-227
sg30
I-227
sg31
I-227
sS'['
I-227
sg165
I-227
sg36
I-227
sg37
I-227
sg38
I-227
sg40
I-227
sS'?'
I-227
sg45
I-227
sg46
I-227
sg166
I-227
sg49
I-227
ssI137
(dp249
S']'
I176
ssI138
(dp250
g63
I30
sS']'
I-55
ssI139
(dp251
g22
I-75
sg36
I-75
sg24
I-75
sg27
I-75
sg3
I-75
sg40
I-75
sg43
I-75
sg44
I-75
sS'['
I-75
sg46
I-75
sg21
I-75
ssI140
(dp252
g3
I-50
sg4
I-50
sg5
I-50
sg6
I-50
sg7
I-50
sg8
I-50
sg9
I-50
sg10
I-50
sg11
I-50
sg12
I-50
sg13
I-50
sg14
I-50
sg15
I-50
sS'('
I-50
sg16
I-50
sg17
I-50
sg18
I-50
sg19
I-50
sg20
I-50
sg22
I-50
sg23
I-50
sg24
I-50
sg25
I-50
sg26
I-50
sg27
I-50
sg28
I-50
sg29
I-50
sg30
I-50
sg31
I-50
sg47
I-50
sg32
I-50
sS'['
I3
sg33
I-50
sg34
I-50
sg35
I-50
sg36
I-50
sg37
I-50
sg38
I-50
sg39
I-50
sg40
I-50
sg41
I-50
sg42
I-50
sg43
I-50
sg44
I-50
sg45
I-50
sg46
I-50
sS'}'
I-66
sg48
I-50
sg49
I-50
ssI141
(dp253
g3
I-50
sg4
I-50
sg5
I-50
sg6
I-50
sg7
I-50
sg8
I-50
sg9
I-50
sg10
I-50
sg11
I-50
sg12
I-50
sg13
I-50
sg14
I-50
sg15
I-50
sS'('
I-50
sg16
I-50
sg17
I-50
sg18
I-50
sg19
I-50
sg20
I-50
sg22
I-50
sg23
I-50
sg24
I-50
sg25
I-50
sg26
I-50
sg27
I-50
sg28
I-50
sg29
I-50
sg30
I-50
sg31
I-50
sg47
I-50
sg32
I-50
sS'['
I3
sg33
I-50
sg34
I-50
sg35
I-50
sg36
I-50
sg37
I-50
sg38
I-50
sg39
I-50
sg40
I-50
sg41
I-50
sg42
I-50
sS'error'
p254
I180
sg44
I-50
sg45
I-50
sg46
I-50
sS'}'
I-35
sg48
I-50
sg49
I-50
ssI142
(dp255
S'('
I-244
sg46
I-244
sS'>'
I-244
ssI143
(dp256
S'('
I-243
sg46
I-243
sS'>'
I-243
ssI144
(dp257
S'('
I181
ssI145
(dp258
g3
I-50
sg4
I-50
sg5
I-50
sg6
I-50
sg7
I-50
sg8
I-50
sg9
I-50
sg10
I-50
sg11
I-50
sg12
I-50
sg13
I-50
sg14
I-50
sg15
I-50
sS'('
I-50
sg16
I-50
sg17
I-50
sg18
I-50
sg19
I-50
sg20
I-50
sg22
I-50
sg23
I-50
sg24
I-50
sg25
I-50
sg26
I-50
sg27
I-50
sg28
I-50
sg29
I-50
sg30
I-50
sg31
I-50
sg47
I-50
sg32
I-50
sS'['
I3
sg33
I-50
sg34
I-50
sg35
I-50
sg36
I-50
sg37
I-50
sg38
I-50
sg39
I-50
sg40
I-50
sg41
I-50
sg42
I-50
sS'error'
p259
I183
sg44
I-50
sg45
I-50
sg46
I-50
sS'}'
I-35
sg48
I-50
sg49
I-50
ssI146
(dp260
g22
I-106
sg36
I-106
sg24
I-106
sg27
I-106
sg3
I-106
sg40
I-106
sg43
I-106
sg44
I-106
sS'['
I-106
sg46
I-106
sg21
I-106
ssI147
(dp261
S']'
I-54
ssI148
(dp262
S']'
I-249
sS','
I-249
ssI149
(dp263
g3
I-50
sg4
I-50
sg5
I-50
sg6
I-50
sg7
I-50
sg8
I-50
sg9
I-50
sg10
I-50
sg11
I-50
sg12
I-50
sg13
I-50
sg14
I-50
sg15
I-50
sS'('
I-50
sg16
I-50
sg17
I-50
sg18
I-50
sg19
I-50
sg20
I-50
sg22
I-50
sg23
I-50
sg24
I-50
sg25
I-50
sg26
I-50
sg27
I-50
sg28
I-50
sg29
I-50
sg30
I-50
sg31
I-50
sg32
I-50
sS'['
I3
sg33
I-50
sg34
I-50
sg35
I-50
sg36
I-50
sg37
I-50
sg38
I-50
sg39
I-50
sg40
I-50
sg41
I-50
sg42
I-50
sS'error'
p264
I185
sg44
I-50
sg45
I-50
sg46
I-50
sg47
I-50
sg48
I-50
sg49
I-50
ssI150
(dp265
S')'
I-163
ssI151
(dp266
g165
I-175
sg36
I-175
sg3
I-175
sg5
I-175
sg37
I-175
sg24
I-175
sg15
I-175
sg38
I-175
sg27
I-175
sg22
I-175
sg29
I-175
sg30
I-175
sg40
I-175
sg31
I-175
sg10
I-175
sg20
I-175
sS'ELLIPSIS'
p267
I187
sg45
I-175
sg46
I-175
sg49
I-175
sg13
I-175
ssI152
(dp268
g111
I80
sg112
I64
sg113
I71
sg114
I76
sS'('
I73
sg115
I65
sg116
I77
sg117
I67
sg118
I74
sg119
I87
sg120
I90
sg121
I91
sg122
I92
sg123
I86
sg124
I69
sg125
I81
sg126
I82
sg127
I85
sg128
I89
ssI153
(dp269
S')'
I-169
sS','
I-169
ssI154
(dp270
S')'
I-92
sS','
I189
ssI155
(dp271
S')'
I190
ssI156
(dp272
S')'
I191
ssI157
(dp273
S')'
I-247
sS']'
I-247
sS'}'
I-247
sS','
I192
ssI158
(dp274
g3
I-50
sg4
I-50
sg5
I-50
sg6
I-50
sg7
I-50
sg8
I-50
sg9
I-50
sg10
I-50
sg11
I-50
sg12
I-50
sg13
I-50
sg14
I-50
sg15
I-50
sS')'
I-164
sS'('
I-50
sg16
I-50
sg17
I-50
sg18
I-50
sg19
I-50
sg20
I-50
sg22
I-50
sg23
I-50
sg24
I-50
sg25
I-50
sg26
I-50
sg27
I-50
sg28
I-50
sg29
I-50
sg30
I-50
sg31
I-50
sg32
I-50
sS'['
I3
sg33
I-50
sg34
I-50
sg35
I-50
sg36
I-50
sg37
I-50
sg38
I-50
sg39
I-50
sg40
I-50
sg41
I-50
sg42
I-50
sg152
I107
sg44
I-50
sg45
I-50
sg46
I-50
sg47
I-50
sg48
I-50
sg49
I-50
ssI159
(dp275
S'}'
I195
ssI160
(dp276
g35
I-70
sg4
I-70
sg14
I-70
sg25
I-70
sS'('
I-70
sS'REQUIRED'
p277
I196
sg28
I-70
sg17
I-70
sg18
I-70
sg39
I-70
sg9
I-70
sg41
I-70
sg42
I-70
sg45
I-70
sg47
I-70
sg11
I-70
sg32
I-70
sg12
I-70
sg46
I-70
sg48
I-70
ssI161
(dp278
g22
I-57
sg36
I-57
sg24
I-57
sg27
I-57
sg3
I-57
sg40
I-57
sg43
I-57
sg44
I-57
sS'['
I-57
sg46
I-57
sg21
I-57
ssI162
(dp279
S';'
I199
ssI163
(dp280
S'}'
I-100
sS','
I200
ssI164
(dp281
S'}'
I202
ssI165
(dp282
g112
I64
sS'CONST'
p283
I207
sg115
I65
sg124
I69
sg113
I71
sS'('
I73
sg117
I67
sg118
I74
sS'READONLY'
p284
I209
sg114
I76
sg116
I77
sg125
I81
sg126
I82
sg127
I85
sg38
I-149
sg119
I87
sg120
I90
sg121
I91
sS'error'
p285
I212
sg122
I92
sg111
I80
sg123
I86
sg128
I89
ssI166
(dp286
S'}'
I-93
ssI167
(dp287
g3
I-82
sg5
I-82
sg10
I-82
sg13
I-82
sg15
I-82
sS')'
I-82
sS'('
I-82
sg16
I-82
sS','
I-82
sg164
I-82
sg20
I-82
sS'>'
I-82
sg22
I-82
sg24
I-82
sg27
I-82
sg29
I-82
sg30
I-82
sg31
I-82
sS'['
I118
sg165
I-82
sg36
I-82
sg37
I-82
sg38
I-82
sg40
I-82
sS'?'
I119
sg45
I-82
sg46
I-82
sg166
I-82
sg49
I-82
ssI168
(dp288
g3
I-81
sg5
I-81
sg10
I-81
sg13
I-81
sg15
I-81
sS')'
I-81
sS'('
I-81
sg16
I-81
sS','
I-81
sg164
I-81
sg20
I-81
sS'>'
I-81
sg22
I-81
sg24
I-81
sg27
I-81
sg29
I-81
sg30
I-81
sg31
I-81
sg165
I-81
sg36
I-81
sg37
I-81
sg38
I-81
sg40
I-81
sg45
I-81
sg46
I-81
sg166
I-81
sg49
I-81
ssI169
(dp289
g22
I-104
sg36
I-104
sg24
I-104
sg27
I-104
sg3
I-104
sg40
I-104
sg43
I-104
sg44
I-104
sS'['
I-104
sg46
I-104
sg21
I-104
ssI170
(dp290
S')'
I-72
sg166
I-72
ssI171
(dp291
g111
I80
sg112
I64
sg113
I71
sg114
I76
sS'('
I73
sg115
I65
sg116
I77
sg117
I67
sg118
I74
sg119
I87
sg120
I90
sg121
I91
sg122
I92
sg123
I86
sg124
I69
sg125
I81
sg126
I82
sg127
I85
sg177
I125
ssI172
(dp292
S']'
I215
ssI173
(dp293
S'>'
I216
ssI174
(dp294
g3
I-82
sg5
I-82
sg10
I-82
sg13
I-82
sg15
I-82
sS')'
I-82
sS'('
I-82
sg16
I-82
sS','
I-82
sg164
I-82
sg20
I-82
sS'>'
I-82
sg22
I-82
sg24
I-82
sg27
I-82
sg29
I-82
sg30
I-82
sg31
I-82
sS'['
I118
sg165
I-82
sg36
I-82
sg37
I-82
sg38
I-82
sg40
I-82
sS'?'
I119
sg45
I-82
sg46
I-82
sg166
I-82
sg49
I-82
ssI175
(dp295
S'>'
I218
ssI176
(dp296
g35
I-186
sg4
I-186
sg14
I-186
sg25
I-186
sS'('
I-186
sg9
I-186
sg28
I-186
sg17
I-186
sg18
I-186
sg39
I-186
sg41
I-186
sg42
I-186
sg45
I-186
sg47
I-186
sg11
I-186
sg32
I-186
sg12
I-186
sg46
I-186
sg48
I-186
ssI177
(dp297
S'}'
I219
ssI178
(dp298
S'}'
I220
ssI179
(dp299
g112
I64
sg283
I207
sS'SETLIKE'
p300
I229
sS'MAPLIKE'
p301
I246
sg204
I142
sg115
I65
sS'STATIC'
p302
I230
sg124
I69
sS'SETTER'
p303
I231
sg113
I71
sS'CREATOR'
p304
I223
sS'('
I73
sg117
I67
sg118
I74
sS'READONLY'
p305
I233
sS'SERIALIZER'
p306
I248
sg114
I76
sS'LEGACYITERABLE'
p307
I250
sg116
I77
sS'INHERIT'
p308
I243
sS'LEGACYCALLER'
p309
I227
sS'GETTER'
p310
I234
sg125
I81
sg126
I82
sS'ITERABLE'
p311
I225
sg111
I80
sS'STRINGIFIER'
p312
I238
sS'ATTRIBUTE'
p313
I239
sg119
I87
sg120
I90
sg121
I91
sg123
I86
sg122
I92
sg127
I85
sg128
I89
sS'DELETER'
p314
I252
ssI180
(dp315
S'}'
I-37
ssI181
(dp316
g3
I-50
sg4
I-50
sg5
I-50
sg6
I-50
sg7
I-50
sg8
I-50
sg9
I-50
sg10
I-50
sg11
I-50
sg12
I-50
sg13
I-50
sg14
I-50
sg15
I-50
sS')'
I-164
sS'('
I-50
sg16
I-50
sg17
I-50
sg18
I-50
sg19
I-50
sg20
I-50
sg22
I-50
sg23
I-50
sg24
I-50
sg25
I-50
sg26
I-50
sg27
I-50
sg28
I-50
sg29
I-50
sg30
I-50
sg31
I-50
sg32
I-50
sS'['
I3
sg33
I-50
sg34
I-50
sg35
I-50
sg36
I-50
sg37
I-50
sg38
I-50
sg39
I-50
sg40
I-50
sg41
I-50
sg42
I-50
sg152
I107
sg44
I-50
sg45
I-50
sg46
I-50
sg47
I-50
sg48
I-50
sg49
I-50
ssI182
(dp317
S'}'
I254
ssI183
(dp318
g22
I-21
sg36
I-21
sg24
I-21
sg27
I-21
sg3
I-21
sg40
I-21
sg43
I-21
sg44
I-21
sS'['
I-21
sg46
I-21
sS'}'
I-37
sg21
I-21
ssI184
(dp319
S')'
I-167
sS','
I149
ssI185
(dp320
S')'
I-168
ssI186
(dp321
S'IMPLEMENTS'
p322
I269
sS'EXCEPTION'
p323
I256
sS'CONST'
p324
I257
sS'STRINGIFIER'
p325
I271
sS'DICTIONARY'
p326
I264
sS'CREATOR'
p327
I260
sS'ATTRIBUTE'
p328
I272
sS'ENUM'
p329
I265
sS'TYPEDEF'
p330
I263
sS'INHERIT'
p331
I266
sS'LEGACYCALLER'
p332
I267
sS'CALLBACK'
p333
I274
sS'GETTER'
p334
I268
sS'STATIC'
p335
I258
sS'SERIALIZER'
p336
I262
sS'PARTIAL'
p337
I270
sS'UNRESTRICTED'
p338
I275
sS'identifier'
p339
I276
sS'DELETER'
p340
I277
sS'SETTER'
p341
I259
ssI187
(dp342
g165
I-174
sg3
I-174
sg5
I-174
sg37
I-174
sg24
I-174
sg15
I-174
sg38
I-174
sg27
I-174
sg22
I-174
sg29
I-174
sg30
I-174
sg40
I-174
sg31
I-174
sg10
I-174
sg20
I-174
sg36
I-174
sg45
I-174
sg46
I-174
sg49
I-174
sg13
I-174
ssI188
(dp343
g322
I269
sg323
I256
sg324
I257
sg325
I271
sg326
I264
sg327
I260
sg328
I272
sg329
I265
sg330
I263
sg331
I266
sg332
I267
sg333
I274
sg334
I268
sg335
I258
sg336
I262
sg337
I270
sg338
I275
sg339
I276
sg340
I277
sg341
I259
ssI189
(dp344
g155
I108
ssI190
(dp345
S']'
I-251
sS','
I-251
ssI191
(dp346
S']'
I-90
sS','
I-90
ssI192
(dp347
S'identifier'
p348
I280
ssI193
(dp349
S')'
I-245
ssI194
(dp350
S')'
I281
ssI195
(dp351
S';'
I282
ssI196
(dp352
g35
I-69
sg4
I-69
sg14
I-69
sg25
I-69
sS'('
I-69
sg9
I-69
sg28
I-69
sg17
I-69
sg18
I-69
sg39
I-69
sg41
I-69
sg42
I-69
sg45
I-69
sg47
I-69
sg11
I-69
sg32
I-69
sg12
I-69
sg46
I-69
sg48
I-69
ssI197
(dp353
g111
I80
sg112
I64
sg113
I71
sg114
I76
sS'('
I73
sg115
I65
sg116
I77
sg117
I67
sg118
I74
sg119
I87
sg120
I90
sg121
I91
sg122
I92
sg123
I86
sg124
I69
sg125
I81
sg126
I82
sg127
I85
sg128
I89
ssI198
(dp354
g3
I-50
sg4
I-50
sg5
I-50
sg6
I-50
sg7
I-50
sg8
I-50
sg9
I-50
sg10
I-50
sg11
I-50
sg12
I-50
sg13
I-50
sg14
I-50
sg15
I-50
sS'('
I-50
sg16
I-50
sg17
I-50
sg18
I-50
sg19
I-50
sg20
I-50
sg22
I-50
sg23
I-50
sg24
I-50
sg25
I-50
sg26
I-50
sg27
I-50
sg28
I-50
sg29
I-50
sg30
I-50
sg31
I-50
sg47
I-50
sg32
I-50
sS'['
I3
sg33
I-50
sg34
I-50
sg35
I-50
sg36
I-50
sg37
I-50
sg38
I-50
sg39
I-50
sg40
I-50
sg41
I-50
sg42
I-50
sg43
I-50
sg44
I-50
sg45
I-50
sg46
I-50
sS'}'
I-66
sg48
I-50
sg49
I-50
ssI199
(dp355
g22
I-96
sg36
I-96
sg24
I-96
sg27
I-96
sg3
I-96
sg40
I-96
sg43
I-96
sg44
I-96
sS'['
I-96
sg46
I-96
sg21
I-96
ssI200
(dp356
g3
I-50
sg4
I-50
sg5
I-50
sg6
I-50
sg7
I-50
sg8
I-50
sg9
I-50
sg10
I-50
sg11
I-50
sg12
I-50
sg13
I-50
sg14
I-50
sg15
I-50
sS'('
I-50
sg16
I-50
sg17
I-50
sg18
I-50
sg19
I-50
sg20
I-50
sg22
I-50
sg23
I-50
sg24
I-50
sg25
I-50
sg26
I-50
sg27
I-50
sg28
I-50
sg29
I-50
sg30
I-50
sg31
I-50
sg47
I-50
sg32
I-50
sS'['
I3
sg33
I-50
sg34
I-50
sg35
I-50
sg36
I-50
sg37
I-50
sg38
I-50
sg39
I-50
sg40
I-50
sg41
I-50
sg42
I-50
sg43
I-50
sg44
I-50
sg45
I-50
sg46
I-50
sS'}'
I-102
sg48
I-50
sg49
I-50
ssI201
(dp357
S'}'
I-98
ssI202
(dp358
S';'
I287
ssI203
(dp359
g4
I-26
sg5
I-26
sg9
I-26
sg11
I-26
sg12
I-26
sg14
I-26
sS'('
I-26
sg17
I-26
sg18
I-26
sg19
I-26
sg25
I-26
sg28
I-26
sg32
I-26
sS'['
I-26
sg46
I-26
sg38
I-26
sg39
I-26
sS'}'
I-26
sg41
I-26
sg42
I-26
sg43
I-26
sg45
I-26
sg35
I-26
sg47
I-26
sg48
I-26
ssI204
(dp360
g4
I-28
sg5
I-28
sg9
I-28
sg11
I-28
sg12
I-28
sg14
I-28
sS'('
I-28
sg17
I-28
sg18
I-28
sg19
I-28
sg25
I-28
sg28
I-28
sg32
I-28
sS'['
I-28
sg46
I-28
sg38
I-28
sg39
I-28
sS'}'
I-28
sg41
I-28
sg42
I-28
sg43
I-28
sg45
I-28
sg35
I-28
sg47
I-28
sg48
I-28
ssI205
(dp361
g4
I-29
sg5
I-29
sg9
I-29
sg11
I-29
sg12
I-29
sg14
I-29
sS'('
I-29
sg17
I-29
sg18
I-29
sg19
I-29
sg25
I-29
sg28
I-29
sg32
I-29
sS'['
I-29
sg46
I-29
sg38
I-29
sg39
I-29
sS'}'
I-29
sg41
I-29
sg42
I-29
sg43
I-29
sg45
I-29
sg35
I-29
sg47
I-29
sg48
I-29
ssI206
(dp362
g4
I-27
sg5
I-27
sg9
I-27
sg11
I-27
sg12
I-27
sg14
I-27
sS'('
I-27
sg17
I-27
sg18
I-27
sg19
I-27
sg25
I-27
sg28
I-27
sg32
I-27
sS'['
I-27
sg46
I-27
sg38
I-27
sg39
I-27
sS'}'
I-27
sg41
I-27
sg42
I-27
sg43
I-27
sg45
I-27
sg35
I-27
sg47
I-27
sg48
I-27
ssI207
(dp363
g111
I80
sg112
I64
sg113
I71
sg123
I86
sg115
I65
sg116
I77
sg117
I67
sg118
I74
sg119
I87
sg120
I90
sg124
I69
sg125
I81
sg126
I82
sS'identifier'
p364
I289
sg122
I92
ssI208
(dp365
S'identifier'
p366
I291
ssI209
(dp367
g38
I-148
ssI210
(dp368
g3
I-50
sg4
I-50
sg5
I-50
sg6
I-50
sg7
I-50
sg8
I-50
sg9
I-50
sg10
I-50
sg11
I-50
sg12
I-50
sg13
I-50
sg14
I-50
sg15
I-50
sS'('
I-50
sg16
I-50
sg17
I-50
sg18
I-50
sg19
I-50
sg20
I-50
sg22
I-50
sg23
I-50
sg24
I-50
sg25
I-50
sg26
I-50
sg27
I-50
sg28
I-50
sg29
I-50
sg30
I-50
sg31
I-50
sg47
I-50
sg32
I-50
sS'['
I3
sg33
I-50
sg34
I-50
sg35
I-50
sg36
I-50
sg37
I-50
sg38
I-50
sg39
I-50
sg40
I-50
sg41
I-50
sg42
I-50
sg227
I166
sg44
I-50
sg45
I-50
sg46
I-50
sS'}'
I-89
sg48
I-50
sg49
I-50
ssI211
(dp369
S'ATTRIBUTE'
p370
I293
ssI212
(dp371
g4
I-177
sg5
I-177
sg9
I-177
sg11
I-177
sg12
I-177
sg14
I-177
sS'('
I-177
sg17
I-177
sg18
I-177
sg19
I-177
sg25
I-177
sg28
I-177
sg32
I-177
sS'['
I-177
sg46
I-177
sg38
I-177
sg39
I-177
sS'}'
I-177
sg41
I-177
sg42
I-177
sg43
I-177
sg45
I-177
sg35
I-177
sg47
I-177
sg48
I-177
ssI213
(dp372
g3
I-80
sg5
I-80
sg10
I-80
sg13
I-80
sg15
I-80
sS')'
I-80
sS'('
I-80
sg16
I-80
sS','
I-80
sg164
I-80
sg20
I-80
sS'>'
I-80
sg22
I-80
sg24
I-80
sg27
I-80
sg29
I-80
sg30
I-80
sg31
I-80
sg165
I-80
sg36
I-80
sg37
I-80
sg38
I-80
sg40
I-80
sg45
I-80
sg46
I-80
sg166
I-80
sg49
I-80
ssI214
(dp373
S')'
I-77
sS'OR'
p374
I294
ssI215
(dp375
g3
I-82
sg5
I-82
sg10
I-82
sg13
I-82
sg15
I-82
sS')'
I-82
sS'('
I-82
sg16
I-82
sS','
I-82
sg164
I-82
sg20
I-82
sS'>'
I-82
sg22
I-82
sg24
I-82
sg27
I-82
sg29
I-82
sg30
I-82
sg31
I-82
sS'['
I118
sg165
I-82
sg36
I-82
sg37
I-82
sg38
I-82
sg40
I-82
sS'?'
I119
sg45
I-82
sg46
I-82
sg166
I-82
sg49
I-82
ssI216
(dp376
g3
I-242
sg5
I-242
sg10
I-242
sg13
I-242
sg15
I-242
sS')'
I-242
sS'('
I-242
sg16
I-242
sS','
I-242
sg164
I-242
sg20
I-242
sS'>'
I-242
sg22
I-242
sg24
I-242
sg27
I-242
sg29
I-242
sg30
I-242
sg31
I-242
sg165
I-242
sg36
I-242
sg37
I-242
sg38
I-242
sg40
I-242
sS'?'
I130
sg45
I-242
sg46
I-242
sg166
I-242
sg49
I-242
ssI217
(dp377
g3
I-239
sg5
I-239
sg10
I-239
sg13
I-239
sg15
I-239
sS')'
I-239
sS'('
I-239
sg16
I-239
sS','
I-239
sg164
I-239
sg20
I-239
sS'>'
I-239
sg22
I-239
sg24
I-239
sg27
I-239
sg29
I-239
sg30
I-239
sg31
I-239
sg165
I-239
sg36
I-239
sg37
I-239
sg38
I-239
sg40
I-239
sg45
I-239
sg46
I-239
sg166
I-239
sg49
I-239
ssI218
(dp378
g3
I-237
sg5
I-237
sg10
I-237
sg13
I-237
sg15
I-237
sS')'
I-237
sS'('
I-237
sg16
I-237
sS','
I-237
sg164
I-237
sg20
I-237
sS'>'
I-237
sg22
I-237
sg24
I-237
sg27
I-237
sg29
I-237
sg30
I-237
sg31
I-237
sg165
I-237
sg36
I-237
sg37
I-237
sg38
I-237
sg40
I-237
sS'?'
I-237
sg45
I-237
sg46
I-237
sg166
I-237
sg49
I-237
ssI219
(dp379
S';'
I298
ssI220
(dp380
S';'
I299
ssI221
(dp381
g4
I-38
sg5
I-38
sg6
I-38
sg7
I-38
sg8
I-38
sg9
I-38
sg10
I-38
sg11
I-38
sg12
I-38
sg13
I-38
sg14
I-38
sg15
I-38
sS'('
I-38
sg17
I-38
sg18
I-38
sg19
I-38
sg20
I-38
sg25
I-38
sg26
I-38
sg28
I-38
sg29
I-38
sg30
I-38
sg31
I-38
sg32
I-38
sS'['
I-38
sg34
I-38
sg35
I-38
sg37
I-38
sg38
I-38
sg39
I-38
sS'}'
I-38
sg41
I-38
sg42
I-38
sg43
I-38
sg45
I-38
sg46
I-38
sg47
I-38
sg48
I-38
sg49
I-38
ssI222
(dp382
g4
I-182
sg5
I-182
sg6
I-182
sg7
I-182
sg8
I-182
sg9
I-182
sg10
I-182
sg11
I-182
sg12
I-182
sg13
I-182
sg14
I-182
sg15
I-182
sS'('
I-182
sg17
I-182
sg18
I-182
sg19
I-182
sg20
I-182
sg25
I-182
sg26
I-182
sg28
I-182
sg29
I-182
sg30
I-182
sg31
I-182
sg32
I-182
sS'['
I-182
sg34
I-182
sg35
I-182
sg37
I-182
sg38
I-182
sg39
I-182
sS'}'
I-182
sg41
I-182
sg42
I-182
sg43
I-182
sg45
I-182
sg46
I-182
sg47
I-182
sg48
I-182
sg49
I-182
ssI223
(dp383
g4
I-157
sg8
I-157
sg9
I-157
sg11
I-157
sg13
I-157
sg14
I-157
sg15
I-157
sS'('
I-157
sg17
I-157
sg18
I-157
sg25
I-157
sg28
I-157
sg30
I-157
sg31
I-157
sg32
I-157
sg12
I-157
sg46
I-157
sg47
I-157
sg39
I-157
sg41
I-157
sg42
I-157
sg45
I-157
sg35
I-157
sg48
I-157
sg49
I-157
ssI224
(dp384
g4
I-42
sg5
I-42
sg6
I-42
sg7
I-42
sg8
I-42
sg9
I-42
sg10
I-42
sg11
I-42
sg12
I-42
sg13
I-42
sg14
I-42
sg15
I-42
sS'('
I-42
sg17
I-42
sg18
I-42
sg19
I-42
sg20
I-42
sg25
I-42
sg26
I-42
sg28
I-42
sg29
I-42
sg30
I-42
sg31
I-42
sg32
I-42
sS'['
I-42
sg34
I-42
sg35
I-42
sg37
I-42
sg38
I-42
sg39
I-42
sS'}'
I-42
sg41
I-42
sg42
I-42
sg43
I-42
sg45
I-42
sg46
I-42
sg47
I-42
sg48
I-42
sg49
I-42
ssI225
(dp385
S'<'
I300
ssI226
(dp386
g4
I-46
sg5
I-46
sg6
I-46
sg7
I-46
sg8
I-46
sg9
I-46
sg10
I-46
sg11
I-46
sg12
I-46
sg13
I-46
sg14
I-46
sg15
I-46
sS'('
I-46
sg17
I-46
sg18
I-46
sg19
I-46
sg20
I-46
sg25
I-46
sg26
I-46
sg28
I-46
sg29
I-46
sg30
I-46
sg31
I-46
sg32
I-46
sS'['
I-46
sg34
I-46
sg35
I-46
sg37
I-46
sg38
I-46
sg39
I-46
sS'}'
I-46
sg41
I-46
sg42
I-46
sg43
I-46
sg45
I-46
sg46
I-46
sg47
I-46
sg48
I-46
sg49
I-46
ssI227
(dp387
g4
I-159
sg8
I-159
sg9
I-159
sg11
I-159
sg13
I-159
sg14
I-159
sg15
I-159
sS'('
I-159
sg17
I-159
sg18
I-159
sg25
I-159
sg28
I-159
sg30
I-159
sg31
I-159
sg32
I-159
sg12
I-159
sg46
I-159
sg47
I-159
sg39
I-159
sg41
I-159
sg42
I-159
sg45
I-159
sg35
I-159
sg48
I-159
sg49
I-159
ssI228
(dp388
g4
I-43
sg5
I-43
sg6
I-43
sg7
I-43
sg8
I-43
sg9
I-43
sg10
I-43
sg11
I-43
sg12
I-43
sg13
I-43
sg14
I-43
sg15
I-43
sS'('
I-43
sg17
I-43
sg18
I-43
sg19
I-43
sg20
I-43
sg25
I-43
sg26
I-43
sg28
I-43
sg29
I-43
sg30
I-43
sg31
I-43
sg32
I-43
sS'['
I-43
sg34
I-43
sg35
I-43
sg37
I-43
sg38
I-43
sg39
I-43
sS'}'
I-43
sg41
I-43
sg42
I-43
sg43
I-43
sg45
I-43
sg46
I-43
sg47
I-43
sg48
I-43
sg49
I-43
ssI229
(dp389
S'<'
I301
ssI230
(dp390
g112
I64
sg204
I142
sg115
I65
sg124
I69
sg113
I71
sS'('
I73
sg117
I67
sg118
I74
sg284
I209
sg114
I76
sg116
I77
sg125
I81
sg126
I82
sg127
I85
sg38
I-149
sg119
I87
sg120
I90
sg121
I91
sg123
I86
sg122
I92
sg111
I80
sg128
I89
ssI231
(dp391
g4
I-156
sg8
I-156
sg9
I-156
sg11
I-156
sg13
I-156
sg14
I-156
sg15
I-156
sS'('
I-156
sg17
I-156
sg18
I-156
sg25
I-156
sg28
I-156
sg30
I-156
sg31
I-156
sg32
I-156
sg12
I-156
sg46
I-156
sg47
I-156
sg39
I-156
sg41
I-156
sg42
I-156
sg45
I-156
sg35
I-156
sg48
I-156
sg49
I-156
ssI232
(dp392
g4
I-41
sg5
I-41
sg6
I-41
sg7
I-41
sg8
I-41
sg9
I-41
sg10
I-41
sg11
I-41
sg12
I-41
sg13
I-41
sg14
I-41
sg15
I-41
sS'('
I-41
sg17
I-41
sg18
I-41
sg19
I-41
sg20
I-41
sg25
I-41
sg26
I-41
sg28
I-41
sg29
I-41
sg30
I-41
sg31
I-41
sg32
I-41
sS'['
I-41
sg34
I-41
sg35
I-41
sg37
I-41
sg38
I-41
sg39
I-41
sS'}'
I-41
sg41
I-41
sg42
I-41
sg43
I-41
sg45
I-41
sg46
I-41
sg47
I-41
sg48
I-41
sg49
I-41
ssI233
(dp393
g301
I246
sg313
I239
sg300
I229
ssI234
(dp394
g4
I-155
sg8
I-155
sg9
I-155
sg11
I-155
sg13
I-155
sg14
I-155
sg15
I-155
sS'('
I-155
sg17
I-155
sg18
I-155
sg25
I-155
sg28
I-155
sg30
I-155
sg31
I-155
sg32
I-155
sg12
I-155
sg46
I-155
sg47
I-155
sg39
I-155
sg41
I-155
sg42
I-155
sg45
I-155
sg35
I-155
sg48
I-155
sg49
I-155
ssI235
(dp395
g4
I-47
sg5
I-47
sg6
I-47
sg7
I-47
sg8
I-47
sg9
I-47
sg10
I-47
sg11
I-47
sg12
I-47
sg13
I-47
sg14
I-47
sg15
I-47
sS'('
I-47
sg17
I-47
sg18
I-47
sg19
I-47
sg20
I-47
sg25
I-47
sg26
I-47
sg28
I-47
sg29
I-47
sg30
I-47
sg31
I-47
sg32
I-47
sS'['
I-47
sg34
I-47
sg35
I-47
sg37
I-47
sg38
I-47
sg39
I-47
sS'}'
I-47
sg41
I-47
sg42
I-47
sg43
I-47
sg45
I-47
sg46
I-47
sg47
I-47
sg48
I-47
sg49
I-47
ssI236
(dp396
g4
I-39
sg5
I-39
sg6
I-39
sg7
I-39
sg8
I-39
sg9
I-39
sg10
I-39
sg11
I-39
sg12
I-39
sg13
I-39
sg14
I-39
sg15
I-39
sS'('
I-39
sg17
I-39
sg18
I-39
sg19
I-39
sg20
I-39
sg25
I-39
sg26
I-39
sg28
I-39
sg29
I-39
sg30
I-39
sg31
I-39
sg32
I-39
sS'['
I-39
sg34
I-39
sg35
I-39
sg37
I-39
sg38
I-39
sg39
I-39
sS'}'
I-39
sg41
I-39
sg42
I-39
sg43
I-39
sg45
I-39
sg46
I-39
sg47
I-39
sg48
I-39
sg49
I-39
ssI237
(dp397
g4
I-45
sg5
I-45
sg6
I-45
sg7
I-45
sg8
I-45
sg9
I-45
sg10
I-45
sg11
I-45
sg12
I-45
sg13
I-45
sg14
I-45
sg15
I-45
sS'('
I-45
sg17
I-45
sg18
I-45
sg19
I-45
sg20
I-45
sg25
I-45
sg26
I-45
sg28
I-45
sg29
I-45
sg30
I-45
sg31
I-45
sg32
I-45
sS'['
I-45
sg34
I-45
sg35
I-45
sg37
I-45
sg38
I-45
sg39
I-45
sS'}'
I-45
sg41
I-45
sg42
I-45
sg43
I-45
sg45
I-45
sg46
I-45
sg47
I-45
sg48
I-45
sg49
I-45
ssI238
(dp398
g112
I64
sg204
I142
sg115
I65
sg124
I69
sg113
I71
sS'('
I73
sg117
I67
sg118
I74
sS';'
I311
sg114
I76
sg116
I77
sg125
I81
sg126
I82
sg127
I85
sg123
I86
sg119
I87
sg120
I90
sg121
I91
sg313
I239
sg122
I92
sg111
I80
sg128
I89
ssI239
(dp399
g111
I80
sg112
I64
sg113
I71
sg114
I76
sS'('
I73
sg115
I65
sg116
I77
sg117
I67
sg118
I74
sg119
I87
sg120
I90
sg121
I91
sg122
I92
sg123
I86
sg124
I69
sg125
I81
sg126
I82
sg127
I85
sg128
I89
ssI240
(dp400
g4
I-183
sg5
I-183
sg6
I-183
sg7
I-183
sg8
I-183
sg9
I-183
sg10
I-183
sg11
I-183
sg12
I-183
sg13
I-183
sg14
I-183
sg15
I-183
sS'('
I-183
sg17
I-183
sg18
I-183
sg19
I-183
sg20
I-183
sg25
I-183
sg26
I-183
sg28
I-183
sg29
I-183
sg30
I-183
sg31
I-183
sg32
I-183
sS'['
I-183
sg34
I-183
sg35
I-183
sg37
I-183
sg38
I-183
sg39
I-183
sS'}'
I-183
sg41
I-183
sg42
I-183
sg43
I-183
sg45
I-183
sg46
I-183
sg47
I-183
sg48
I-183
sg49
I-183
ssI241
(dp401
g3
I-50
sg4
I-50
sg5
I-50
sg6
I-50
sg7
I-50
sg8
I-50
sg9
I-50
sg10
I-50
sg11
I-50
sg12
I-50
sg13
I-50
sg14
I-50
sg15
I-50
sS'('
I-50
sg16
I-50
sg17
I-50
sg18
I-50
sg19
I-50
sg20
I-50
sg22
I-50
sg23
I-50
sg24
I-50
sg25
I-50
sg26
I-50
sg27
I-50
sg28
I-50
sg29
I-50
sg30
I-50
sg31
I-50
sg47
I-50
sg32
I-50
sS'['
I3
sg33
I-50
sg34
I-50
sg35
I-50
sg36
I-50
sg37
I-50
sg38
I-50
sg39
I-50
sg40
I-50
sg41
I-50
sg42
I-50
sg254
I180
sg44
I-50
sg45
I-50
sg46
I-50
sS'}'
I-35
sg48
I-50
sg49
I-50
ssI242
(dp402
g4
I-143
sg5
I-143
sg6
I-143
sg7
I-143
sg8
I-143
sg9
I-143
sg10
I-143
sg11
I-143
sg12
I-143
sg13
I-143
sg14
I-143
sg15
I-143
sS'('
I-143
sg17
I-143
sg18
I-143
sg19
I-143
sg20
I-143
sg25
I-143
sg26
I-143
sg28
I-143
sg29
I-143
sg30
I-143
sg31
I-143
sg32
I-143
sS'['
I-143
sg34
I-143
sg35
I-143
sg37
I-143
sg38
I-143
sg39
I-143
sS'}'
I-143
sg41
I-143
sg42
I-143
sg43
I-143
sg45
I-143
sg46
I-143
sg47
I-143
sg48
I-143
sg49
I-143
ssI243
(dp403
g38
I-149
sg284
I209
ssI244
(dp404
g4
I-40
sg5
I-40
sg6
I-40
sg7
I-40
sg8
I-40
sg9
I-40
sg10
I-40
sg11
I-40
sg12
I-40
sg13
I-40
sg14
I-40
sg15
I-40
sS'('
I-40
sg17
I-40
sg18
I-40
sg19
I-40
sg20
I-40
sg25
I-40
sg26
I-40
sg28
I-40
sg29
I-40
sg30
I-40
sg31
I-40
sg32
I-40
sS'['
I-40
sg34
I-40
sg35
I-40
sg37
I-40
sg38
I-40
sg39
I-40
sS'}'
I-40
sg41
I-40
sg42
I-40
sg43
I-40
sg45
I-40
sg46
I-40
sg47
I-40
sg48
I-40
sg49
I-40
ssI245
(dp405
g4
I-154
sg8
I-154
sg9
I-154
sg11
I-154
sg303
I231
sg14
I-154
sg304
I223
sS'('
I-154
sg17
I-154
sg18
I-154
sg25
I-154
sg28
I-154
sg309
I227
sg310
I234
sg32
I-154
sg12
I-154
sg46
I-154
sg47
I-154
sg39
I-154
sg41
I-154
sg42
I-154
sg45
I-154
sg35
I-154
sg48
I-154
sg314
I252
ssI246
(dp406
S'<'
I318
ssI247
(dp407
g4
I-44
sg5
I-44
sg6
I-44
sg7
I-44
sg8
I-44
sg9
I-44
sg10
I-44
sg11
I-44
sg12
I-44
sg13
I-44
sg14
I-44
sg15
I-44
sS'('
I-44
sg17
I-44
sg18
I-44
sg19
I-44
sg20
I-44
sg25
I-44
sg26
I-44
sg28
I-44
sg29
I-44
sg30
I-44
sg31
I-44
sg32
I-44
sS'['
I-44
sg34
I-44
sg35
I-44
sg37
I-44
sg38
I-44
sg39
I-44
sS'}'
I-44
sg41
I-44
sg42
I-44
sg43
I-44
sg45
I-44
sg46
I-44
sg47
I-44
sg48
I-44
sg49
I-44
ssI248
(dp408
g112
I64
sg204
I142
sg115
I65
sg124
I69
sg113
I71
sS'('
I73
sg117
I67
sg118
I74
sS';'
I320
sS'='
I321
sg114
I76
sg116
I77
sg125
I81
sg126
I82
sg127
I85
sg123
I86
sg119
I87
sg120
I90
sg121
I91
sg122
I92
sg111
I80
sg128
I89
ssI249
(dp409
g4
I-151
sg5
I-151
sg6
I-151
sg7
I-151
sg8
I-151
sg9
I-151
sg10
I-151
sg11
I-151
sg12
I-151
sg13
I-151
sg14
I-151
sg15
I-151
sS'('
I-151
sg17
I-151
sg18
I-151
sg19
I-151
sg20
I-151
sg25
I-151
sg26
I-151
sg28
I-151
sg29
I-151
sg30
I-151
sg31
I-151
sg32
I-151
sS'['
I-151
sg34
I-151
sg35
I-151
sg37
I-151
sg38
I-151
sg39
I-151
sS'}'
I-151
sg41
I-151
sg42
I-151
sg43
I-151
sg45
I-151
sg46
I-151
sg47
I-151
sg48
I-151
sg49
I-151
ssI250
(dp410
S'<'
I323
ssI251
(dp411
S'('
I-162
sS'identifier'
p412
I326
ssI252
(dp413
g4
I-158
sg8
I-158
sg9
I-158
sg11
I-158
sg13
I-158
sg14
I-158
sg15
I-158
sS'('
I-158
sg17
I-158
sg18
I-158
sg25
I-158
sg28
I-158
sg30
I-158
sg31
I-158
sg32
I-158
sg12
I-158
sg46
I-158
sg47
I-158
sg39
I-158
sg41
I-158
sg42
I-158
sg45
I-158
sg35
I-158
sg48
I-158
sg49
I-158
ssI253
(dp414
S')'
I327
ssI254
(dp415
S';'
I328
ssI255
(dp416
S')'
I-166
ssI256
(dp417
S')'
I-195
sS'='
I-195
sS','
I-195
ssI257
(dp418
S')'
I-190
sS'='
I-190
sS','
I-190
ssI258
(dp419
S')'
I-203
sS'='
I-203
sS','
I-203
ssI259
(dp420
S')'
I-202
sS'='
I-202
sS','
I-202
ssI260
(dp421
S')'
I-191
sS'='
I-191
sS','
I-191
ssI261
(dp422
S')'
I-171
sS','
I-171
ssI262
(dp423
S')'
I-201
sS'='
I-201
sS','
I-201
ssI263
(dp424
S')'
I-205
sS'='
I-205
sS','
I-205
ssI264
(dp425
S')'
I-193
sS'='
I-193
sS','
I-193
ssI265
(dp426
S')'
I-194
sS'='
I-194
sS','
I-194
ssI266
(dp427
S')'
I-198
sS'='
I-198
sS','
I-198
ssI267
(dp428
S')'
I-199
sS'='
I-199
sS','
I-199
ssI268
(dp429
S')'
I-196
sS'='
I-196
sS','
I-196
ssI269
(dp430
S')'
I-197
sS'='
I-197
sS','
I-197
ssI270
(dp431
S')'
I-200
sS'='
I-200
sS','
I-200
ssI271
(dp432
S')'
I-204
sS'='
I-204
sS','
I-204
ssI272
(dp433
S')'
I-188
sS'='
I-188
sS','
I-188
ssI273
(dp434
S')'
I-172
sS'='
I-172
sS','
I-172
ssI274
(dp435
S')'
I-189
sS'='
I-189
sS','
I-189
ssI275
(dp436
S')'
I-206
sS'='
I-206
sS','
I-206
ssI276
(dp437
S')'
I-173
sS'='
I-173
sS','
I-173
ssI277
(dp438
S')'
I-192
sS'='
I-192
sS','
I-192
ssI278
(dp439
S')'
I-79
sS';'
I-79
sS'='
I329
sS','
I-79
ssI279
(dp440
S')'
I-91
ssI280
(dp441
S')'
I-247
sS']'
I-247
sS'}'
I-247
sS','
I192
ssI281
(dp442
S']'
I-252
sS','
I-252
ssI282
(dp443
g22
I-52
sg36
I-52
sg24
I-52
sg27
I-52
sg3
I-52
sg40
I-52
sg43
I-52
sg44
I-52
sS'['
I-52
sg46
I-52
sg21
I-52
ssI283
(dp444
S'identifier'
p445
I332
ssI284
(dp446
S'}'
I-65
ssI285
(dp447
S'string'
p448
I333
ssI286
(dp449
S'}'
I-99
ssI287
(dp450
g22
I-87
sg36
I-87
sg24
I-87
sg27
I-87
sg3
I-87
sg40
I-87
sg43
I-87
sg44
I-87
sS'['
I-87
sg46
I-87
sg21
I-87
ssI288
(dp451
g3
I-242
sg5
I-242
sg10
I-242
sg13
I-242
sg15
I-242
sS')'
I-242
sS'('
I-242
sg16
I-242
sS','
I-242
sg164
I-242
sg20
I-242
sS'>'
I-242
sg22
I-242
sg24
I-242
sg27
I-242
sg29
I-242
sg30
I-242
sg31
I-242
sg165
I-242
sg36
I-242
sg37
I-242
sg38
I-242
sg40
I-242
sS'?'
I130
sg45
I-242
sg46
I-242
sg166
I-242
sg49
I-242
ssI289
(dp452
g3
I-242
sg5
I-242
sg10
I-242
sg13
I-242
sg15
I-242
sS')'
I-242
sS'('
I-242
sg16
I-242
sS','
I-242
sg164
I-242
sg20
I-242
sS'>'
I-242
sg22
I-242
sg24
I-242
sg27
I-242
sg29
I-242
sg30
I-242
sg31
I-242
sg165
I-242
sg36
I-242
sg37
I-242
sg38
I-242
sg40
I-242
sS'?'
I130
sg45
I-242
sg46
I-242
sg166
I-242
sg49
I-242
ssI290
(dp453
S'identifier'
p454
I336
ssI291
(dp455
S'('
I337
sS';'
I338
ssI292
(dp456
S'}'
I-88
ssI293
(dp457
g111
I80
sg112
I64
sg113
I71
sg114
I76
sS'('
I73
sg115
I65
sg116
I77
sg117
I67
sg118
I74
sg119
I87
sg120
I90
sg121
I91
sg122
I92
sg123
I86
sg124
I69
sg125
I81
sg126
I82
sg127
I85
sg128
I89
ssI294
(dp458
g111
I80
sg112
I64
sg113
I71
sg114
I76
sS'('
I73
sg115
I65
sg116
I77
sg117
I67
sg118
I74
sg119
I87
sg120
I90
sg121
I91
sg122
I92
sg123
I86
sg124
I69
sg125
I81
sg126
I82
sg127
I85
sg177
I125
ssI295
(dp459
S')'
I341
ssI296
(dp460
S')'
I-73
sg166
I-73
ssI297
(dp461
g3
I-214
sg5
I-214
sg10
I-214
sg13
I-214
sg15
I-214
sS')'
I-214
sS'('
I-214
sg16
I-214
sS','
I-214
sg164
I-214
sg20
I-214
sS'>'
I-214
sg22
I-214
sg24
I-214
sg27
I-214
sg29
I-214
sg30
I-214
sg31
I-214
sg165
I-214
sg36
I-214
sg37
I-214
sg38
I-214
sg40
I-214
sg45
I-214
sg46
I-214
sg166
I-214
sg49
I-214
ssI298
(dp462
g22
I-74
sg36
I-74
sg24
I-74
sg27
I-74
sg3
I-74
sg40
I-74
sg43
I-74
sg44
I-74
sS'['
I-74
sg46
I-74
sg21
I-74
ssI299
(dp463
g22
I-32
sg36
I-32
sg24
I-32
sg27
I-32
sg3
I-32
sg40
I-32
sg43
I-32
sg44
I-32
sS'['
I-32
sg46
I-32
sg21
I-32
ssI300
(dp464
g111
I80
sg112
I64
sg113
I71
sg114
I76
sS'('
I73
sg115
I65
sg116
I77
sg117
I67
sg118
I74
sg119
I87
sg120
I90
sg121
I91
sg122
I92
sg123
I86
sg124
I69
sg125
I81
sg126
I82
sg127
I85
sg128
I89
ssI301
(dp465
g111
I80
sg112
I64
sg113
I71
sg114
I76
sS'('
I73
sg115
I65
sg116
I77
sg117
I67
sg118
I74
sg119
I87
sg120
I90
sg121
I91
sg122
I92
sg123
I86
sg124
I69
sg125
I81
sg126
I82
sg127
I85
sg128
I89
ssI302
(dp466
g4
I-135
sg5
I-135
sg6
I-135
sg7
I-135
sg8
I-135
sg9
I-135
sg10
I-135
sg11
I-135
sg12
I-135
sg13
I-135
sg14
I-135
sg15
I-135
sS'('
I-135
sg17
I-135
sg18
I-135
sg19
I-135
sg20
I-135
sg25
I-135
sg26
I-135
sg28
I-135
sg29
I-135
sg30
I-135
sg31
I-135
sg32
I-135
sS'['
I-135
sg34
I-135
sg35
I-135
sg37
I-135
sg38
I-135
sg39
I-135
sS'}'
I-135
sg41
I-135
sg42
I-135
sg43
I-135
sg45
I-135
sg46
I-135
sg47
I-135
sg48
I-135
sg49
I-135
ssI303
(dp467
S'('
I-162
sg412
I326
ssI304
(dp468
g313
I239
ssI305
(dp469
g4
I-139
sg5
I-139
sg6
I-139
sg7
I-139
sg8
I-139
sg9
I-139
sg10
I-139
sg11
I-139
sg12
I-139
sg13
I-139
sg14
I-139
sg15
I-139
sS'('
I-139
sg17
I-139
sg18
I-139
sg19
I-139
sg20
I-139
sg25
I-139
sg26
I-139
sg28
I-139
sg29
I-139
sg30
I-139
sg31
I-139
sg32
I-139
sS'['
I-139
sg34
I-139
sg35
I-139
sg37
I-139
sg38
I-139
sg39
I-139
sS'}'
I-139
sg41
I-139
sg42
I-139
sg43
I-139
sg45
I-139
sg46
I-139
sg47
I-139
sg48
I-139
sg49
I-139
ssI306
(dp470
g4
I-141
sg5
I-141
sg6
I-141
sg7
I-141
sg8
I-141
sg9
I-141
sg10
I-141
sg11
I-141
sg12
I-141
sg13
I-141
sg14
I-141
sg15
I-141
sS'('
I-141
sg17
I-141
sg18
I-141
sg19
I-141
sg20
I-141
sg25
I-141
sg26
I-141
sg28
I-141
sg29
I-141
sg30
I-141
sg31
I-141
sg32
I-141
sS'['
I-141
sg34
I-141
sg35
I-141
sg37
I-141
sg38
I-141
sg39
I-141
sS'}'
I-141
sg41
I-141
sg42
I-141
sg43
I-141
sg45
I-141
sg46
I-141
sg47
I-141
sg48
I-141
sg49
I-141
ssI307
(dp471
g4
I-140
sg5
I-140
sg6
I-140
sg7
I-140
sg8
I-140
sg9
I-140
sg10
I-140
sg11
I-140
sg12
I-140
sg13
I-140
sg14
I-140
sg15
I-140
sS'('
I-140
sg17
I-140
sg18
I-140
sg19
I-140
sg20
I-140
sg25
I-140
sg26
I-140
sg28
I-140
sg29
I-140
sg30
I-140
sg31
I-140
sg32
I-140
sS'['
I-140
sg34
I-140
sg35
I-140
sg37
I-140
sg38
I-140
sg39
I-140
sS'}'
I-140
sg41
I-140
sg42
I-140
sg43
I-140
sg45
I-140
sg46
I-140
sg47
I-140
sg48
I-140
sg49
I-140
ssI308
(dp472
g4
I-138
sg5
I-138
sg6
I-138
sg7
I-138
sg8
I-138
sg9
I-138
sg10
I-138
sg11
I-138
sg12
I-138
sg13
I-138
sg14
I-138
sg15
I-138
sS'('
I-138
sg17
I-138
sg18
I-138
sg19
I-138
sg20
I-138
sg25
I-138
sg26
I-138
sg28
I-138
sg29
I-138
sg30
I-138
sg31
I-138
sg32
I-138
sS'['
I-138
sg34
I-138
sg35
I-138
sg37
I-138
sg38
I-138
sg39
I-138
sS'}'
I-138
sg41
I-138
sg42
I-138
sg43
I-138
sg45
I-138
sg46
I-138
sg47
I-138
sg48
I-138
sg49
I-138
ssI309
(dp473
g4
I-132
sg5
I-132
sg6
I-132
sg7
I-132
sg8
I-132
sg9
I-132
sg10
I-132
sg11
I-132
sg12
I-132
sg13
I-132
sg14
I-132
sg15
I-132
sS'('
I-132
sg17
I-132
sg18
I-132
sg19
I-132
sg20
I-132
sg25
I-132
sg26
I-132
sg28
I-132
sg29
I-132
sg30
I-132
sg31
I-132
sg32
I-132
sS'['
I-132
sg34
I-132
sg35
I-132
sg37
I-132
sg38
I-132
sg39
I-132
sS'}'
I-132
sg41
I-132
sg42
I-132
sg43
I-132
sg45
I-132
sg46
I-132
sg47
I-132
sg48
I-132
sg49
I-132
ssI310
(dp474
g4
I-131
sg5
I-131
sg6
I-131
sg7
I-131
sg8
I-131
sg9
I-131
sg10
I-131
sg11
I-131
sg12
I-131
sg13
I-131
sg14
I-131
sg15
I-131
sS'('
I-131
sg17
I-131
sg18
I-131
sg19
I-131
sg20
I-131
sg25
I-131
sg26
I-131
sg28
I-131
sg29
I-131
sg30
I-131
sg31
I-131
sg32
I-131
sS'['
I-131
sg34
I-131
sg35
I-131
sg37
I-131
sg38
I-131
sg39
I-131
sS'}'
I-131
sg41
I-131
sg42
I-131
sg43
I-131
sg45
I-131
sg46
I-131
sg47
I-131
sg48
I-131
sg49
I-131
ssI311
(dp475
g4
I-134
sg5
I-134
sg6
I-134
sg7
I-134
sg8
I-134
sg9
I-134
sg10
I-134
sg11
I-134
sg12
I-134
sg13
I-134
sg14
I-134
sg15
I-134
sS'('
I-134
sg17
I-134
sg18
I-134
sg19
I-134
sg20
I-134
sg25
I-134
sg26
I-134
sg28
I-134
sg29
I-134
sg30
I-134
sg31
I-134
sg32
I-134
sS'['
I-134
sg34
I-134
sg35
I-134
sg37
I-134
sg38
I-134
sg39
I-134
sS'}'
I-134
sg41
I-134
sg42
I-134
sg43
I-134
sg45
I-134
sg46
I-134
sg47
I-134
sg48
I-134
sg49
I-134
ssI312
(dp476
S'('
I-162
sg412
I326
ssI313
(dp477
S'identifier'
p478
I349
sS'REQUIRED'
p479
I347
ssI314
(dp480
S'}'
I-34
ssI315
(dp481
g313
I239
ssI316
(dp482
g111
I80
sg112
I64
sg113
I71
sg114
I76
sS'('
I73
sg204
I142
sg115
I65
sg116
I77
sg117
I67
sg118
I74
sg119
I87
sg120
I90
sg121
I91
sg122
I92
sg123
I86
sg124
I69
sg125
I81
sg126
I82
sg127
I85
sg128
I89
ssI317
(dp483
g4
I-154
sg8
I-154
sg9
I-154
sg11
I-154
sg303
I231
sg14
I-154
sg304
I223
sS'('
I-154
sg17
I-154
sg18
I-154
sg25
I-154
sg28
I-154
sg309
I227
sg310
I234
sg32
I-154
sg12
I-154
sg46
I-154
sg47
I-154
sg39
I-154
sg41
I-154
sg42
I-154
sg45
I-154
sg35
I-154
sg48
I-154
sg314
I252
ssI318
(dp484
g111
I80
sg112
I64
sg113
I71
sg114
I76
sS'('
I73
sg115
I65
sg116
I77
sg117
I67
sg118
I74
sg119
I87
sg120
I90
sg121
I91
sg122
I92
sg123
I86
sg124
I69
sg125
I81
sg126
I82
sg127
I85
sg128
I89
ssI319
(dp485
g4
I-115
sg5
I-115
sg6
I-115
sg7
I-115
sg8
I-115
sg9
I-115
sg10
I-115
sg11
I-115
sg12
I-115
sg13
I-115
sg14
I-115
sg15
I-115
sS'('
I-115
sg17
I-115
sg18
I-115
sg19
I-115
sg20
I-115
sg25
I-115
sg26
I-115
sg28
I-115
sg29
I-115
sg30
I-115
sg31
I-115
sg32
I-115
sS'['
I-115
sg34
I-115
sg35
I-115
sg37
I-115
sg38
I-115
sg39
I-115
sS'}'
I-115
sg41
I-115
sg42
I-115
sg43
I-115
sg45
I-115
sg46
I-115
sg47
I-115
sg48
I-115
sg49
I-115
ssI320
(dp486
g4
I-118
sg5
I-118
sg6
I-118
sg7
I-118
sg8
I-118
sg9
I-118
sg10
I-118
sg11
I-118
sg12
I-118
sg13
I-118
sg14
I-118
sg15
I-118
sS'('
I-118
sg17
I-118
sg18
I-118
sg19
I-118
sg20
I-118
sg25
I-118
sg26
I-118
sg28
I-118
sg29
I-118
sg30
I-118
sg31
I-118
sg32
I-118
sS'['
I-118
sg34
I-118
sg35
I-118
sg37
I-118
sg38
I-118
sg39
I-118
sS'}'
I-118
sg41
I-118
sg42
I-118
sg43
I-118
sg45
I-118
sg46
I-118
sg47
I-118
sg48
I-118
sg49
I-118
ssI321
(dp487
S'{'
I357
sS'identifier'
p488
I356
sS'['
I355
ssI322
(dp489
S'('
I-162
sg412
I326
ssI323
(dp490
g111
I80
sg112
I64
sg113
I71
sg114
I76
sS'('
I73
sg115
I65
sg116
I77
sg117
I67
sg118
I74
sg119
I87
sg120
I90
sg121
I91
sg122
I92
sg123
I86
sg124
I69
sg125
I81
sg126
I82
sg127
I85
sg128
I89
ssI324
(dp491
g4
I-150
sg5
I-150
sg6
I-150
sg7
I-150
sg8
I-150
sg9
I-150
sg10
I-150
sg11
I-150
sg12
I-150
sg13
I-150
sg14
I-150
sg15
I-150
sS'('
I-150
sg17
I-150
sg18
I-150
sg19
I-150
sg20
I-150
sg25
I-150
sg26
I-150
sg28
I-150
sg29
I-150
sg30
I-150
sg31
I-150
sg32
I-150
sS'['
I-150
sg34
I-150
sg35
I-150
sg37
I-150
sg38
I-150
sg39
I-150
sS'}'
I-150
sg41
I-150
sg42
I-150
sg43
I-150
sg45
I-150
sg46
I-150
sg47
I-150
sg48
I-150
sg49
I-150
ssI325
(dp492
S'('
I361
ssI326
(dp493
S'('
I-161
ssI327
(dp494
S';'
I362
ssI328
(dp495
g22
I-20
sg36
I-20
sg24
I-20
sg27
I-20
sg3
I-20
sg40
I-20
sg43
I-20
sg44
I-20
sS'['
I-20
sg46
I-20
sg21
I-20
ssI329
(dp496
S'FALSE'
p497
I364
sS'string'
p498
I365
sS'NAN'
p499
I374
sS'float'
p500
I368
sS'-'
I369
sS'integer'
p501
I373
sS'INFINITY'
p502
I375
sS'['
I376
sS'NULL'
p503
I372
sS'TRUE'
p504
I379
ssI330
(dp505
S')'
I-170
sS','
I-170
ssI331
(dp506
S')'
I-246
sS']'
I-246
sS'}'
I-246
ssI332
(dp507
S')'
I-79
sS';'
I-79
sS'='
I329
sS','
I-79
ssI333
(dp508
S'}'
I-100
sS','
I200
ssI334
(dp509
g46
I-215
ssI335
(dp510
g46
I-216
ssI336
(dp511
S'='
I382
ssI337
(dp512
S')'
I383
ssI338
(dp513
g4
I-176
sg5
I-176
sg9
I-176
sg11
I-176
sg12
I-176
sg14
I-176
sS'('
I-176
sg17
I-176
sg18
I-176
sg19
I-176
sg25
I-176
sg28
I-176
sg32
I-176
sS'['
I-176
sg46
I-176
sg38
I-176
sg39
I-176
sS'}'
I-176
sg41
I-176
sg42
I-176
sg43
I-176
sg45
I-176
sg35
I-176
sg47
I-176
sg48
I-176
ssI339
(dp514
S'identifier'
p515
I384
ssI340
(dp516
S')'
I-77
sg374
I294
ssI341
(dp517
g3
I-68
sg5
I-68
sg10
I-68
sg13
I-68
sg15
I-68
sS')'
I-68
sS'('
I-68
sg16
I-68
sS','
I-68
sg164
I-68
sg20
I-68
sS'>'
I-68
sg22
I-68
sg24
I-68
sg27
I-68
sg29
I-68
sg30
I-68
sg31
I-68
sS'['
I-68
sg165
I-68
sg36
I-68
sg37
I-68
sg38
I-68
sg40
I-68
sS'?'
I-68
sg45
I-68
sg46
I-68
sg166
I-68
sg49
I-68
ssI342
(dp518
S','
I386
sS'>'
I-181
ssI343
(dp519
S'>'
I388
ssI344
(dp520
g4
I-137
sg5
I-137
sg6
I-137
sg7
I-137
sg8
I-137
sg9
I-137
sg10
I-137
sg11
I-137
sg12
I-137
sg13
I-137
sg14
I-137
sg15
I-137
sS'('
I-137
sg17
I-137
sg18
I-137
sg19
I-137
sg20
I-137
sg25
I-137
sg26
I-137
sg28
I-137
sg29
I-137
sg30
I-137
sg31
I-137
sg32
I-137
sS'['
I-137
sg34
I-137
sg35
I-137
sg37
I-137
sg38
I-137
sg39
I-137
sS'}'
I-137
sg41
I-137
sg42
I-137
sg43
I-137
sg45
I-137
sg46
I-137
sg47
I-137
sg48
I-137
sg49
I-137
ssI345
(dp521
g4
I-136
sg5
I-136
sg6
I-136
sg7
I-136
sg8
I-136
sg9
I-136
sg10
I-136
sg11
I-136
sg12
I-136
sg13
I-136
sg14
I-136
sg15
I-136
sS'('
I-136
sg17
I-136
sg18
I-136
sg19
I-136
sg20
I-136
sg25
I-136
sg26
I-136
sg28
I-136
sg29
I-136
sg30
I-136
sg31
I-136
sg32
I-136
sS'['
I-136
sg34
I-136
sg35
I-136
sg37
I-136
sg38
I-136
sg39
I-136
sS'}'
I-136
sg41
I-136
sg42
I-136
sg43
I-136
sg45
I-136
sg46
I-136
sg47
I-136
sg48
I-136
sg49
I-136
ssI346
(dp522
g4
I-133
sg5
I-133
sg6
I-133
sg7
I-133
sg8
I-133
sg9
I-133
sg10
I-133
sg11
I-133
sg12
I-133
sg13
I-133
sg14
I-133
sg15
I-133
sS'('
I-133
sg17
I-133
sg18
I-133
sg19
I-133
sg20
I-133
sg25
I-133
sg26
I-133
sg28
I-133
sg29
I-133
sg30
I-133
sg31
I-133
sg32
I-133
sS'['
I-133
sg34
I-133
sg35
I-133
sg37
I-133
sg38
I-133
sg39
I-133
sS'}'
I-133
sg41
I-133
sg42
I-133
sg43
I-133
sg45
I-133
sg46
I-133
sg47
I-133
sg48
I-133
sg49
I-133
ssI347
(dp523
S';'
I-147
ssI348
(dp524
S';'
I389
ssI349
(dp525
S';'
I-146
ssI350
(dp526
S';'
I-145
ssI351
(dp527
g4
I-142
sg5
I-142
sg6
I-142
sg7
I-142
sg8
I-142
sg9
I-142
sg10
I-142
sg11
I-142
sg12
I-142
sg13
I-142
sg14
I-142
sg15
I-142
sS'('
I-142
sg17
I-142
sg18
I-142
sg19
I-142
sg20
I-142
sg25
I-142
sg26
I-142
sg28
I-142
sg29
I-142
sg30
I-142
sg31
I-142
sg32
I-142
sS'['
I-142
sg34
I-142
sg35
I-142
sg37
I-142
sg38
I-142
sg39
I-142
sS'}'
I-142
sg41
I-142
sg42
I-142
sg43
I-142
sg45
I-142
sg46
I-142
sg47
I-142
sg48
I-142
sg49
I-142
ssI352
(dp528
S'('
I-162
sg412
I326
ssI353
(dp529
g35
I-153
sg4
I-153
sg14
I-153
sg25
I-153
sS'('
I-153
sg8
I-153
sg9
I-153
sg28
I-153
sg17
I-153
sg18
I-153
sg39
I-153
sg41
I-153
sg42
I-153
sg45
I-153
sg47
I-153
sg11
I-153
sg32
I-153
sg12
I-153
sg46
I-153
sg48
I-153
ssI354
(dp530
S','
I391
ssI355
(dp531
S'GETTER'
p532
I393
sS']'
I-130
sS'identifier'
p533
I394
ssI356
(dp534
S';'
I-121
ssI357
(dp535
S'ATTRIBUTE'
p536
I395
sS'identifier'
p537
I399
sS'GETTER'
p538
I398
sS'}'
I-127
sS'INHERIT'
p539
I396
ssI358
(dp540
S';'
I400
ssI359
(dp541
g4
I-116
sg5
I-116
sg6
I-116
sg7
I-116
sg8
I-116
sg9
I-116
sg10
I-116
sg11
I-116
sg12
I-116
sg13
I-116
sg14
I-116
sg15
I-116
sS'('
I-116
sg17
I-116
sg18
I-116
sg19
I-116
sg20
I-116
sg25
I-116
sg26
I-116
sg28
I-116
sg29
I-116
sg30
I-116
sg31
I-116
sg32
I-116
sS'['
I-116
sg34
I-116
sg35
I-116
sg37
I-116
sg38
I-116
sg39
I-116
sS'}'
I-116
sg41
I-116
sg42
I-116
sg43
I-116
sg45
I-116
sg46
I-116
sg47
I-116
sg48
I-116
sg49
I-116
ssI360
(dp542
S'>'
I401
ssI361
(dp543
g3
I-50
sg4
I-50
sg5
I-50
sg6
I-50
sg7
I-50
sg8
I-50
sg9
I-50
sg10
I-50
sg11
I-50
sg12
I-50
sg13
I-50
sg14
I-50
sg15
I-50
sS')'
I-164
sS'('
I-50
sg16
I-50
sg17
I-50
sg18
I-50
sg19
I-50
sg20
I-50
sg22
I-50
sg23
I-50
sg24
I-50
sg25
I-50
sg26
I-50
sg27
I-50
sg28
I-50
sg29
I-50
sg30
I-50
sg31
I-50
sg32
I-50
sS'['
I3
sg33
I-50
sg34
I-50
sg35
I-50
sg36
I-50
sg37
I-50
sg38
I-50
sg39
I-50
sg40
I-50
sg41
I-50
sg42
I-50
sg152
I107
sg44
I-50
sg45
I-50
sg46
I-50
sg47
I-50
sg48
I-50
sg49
I-50
ssI362
(dp544
g22
I-103
sg36
I-103
sg24
I-103
sg27
I-103
sg3
I-103
sg40
I-103
sg43
I-103
sg44
I-103
sS'['
I-103
sg46
I-103
sg21
I-103
ssI363
(dp545
S')'
I-17
sS';'
I-17
sS','
I-17
ssI364
(dp546
S')'
I-110
sS';'
I-110
sS','
I-110
ssI365
(dp547
S')'
I-24
sS';'
I-24
sS']'
I-24
sS','
I-24
ssI366
(dp548
S')'
I-15
sS';'
I-15
sS','
I-15
ssI367
(dp549
S')'
I-78
sS';'
I-78
sS','
I-78
ssI368
(dp550
S')'
I-111
sS';'
I-111
sS','
I-111
ssI369
(dp551
S'INFINITY'
p552
I403
ssI370
(dp553
S')'
I-16
sS';'
I-16
sS','
I-16
ssI371
(dp554
S')'
I-13
sS';'
I-13
sS','
I-13
ssI372
(dp555
S')'
I-108
sS';'
I-108
sS','
I-108
ssI373
(dp556
S')'
I-22
sS';'
I-22
sS','
I-22
ssI374
(dp557
S')'
I-114
sS';'
I-114
sS','
I-114
ssI375
(dp558
S')'
I-113
sS';'
I-113
sS','
I-113
ssI376
(dp559
S']'
I404
ssI377
(dp560
S')'
I-14
sS';'
I-14
sS','
I-14
ssI378
(dp561
S')'
I-83
sS';'
I-83
sS','
I-83
ssI379
(dp562
S')'
I-109
sS';'
I-109
sS','
I-109
ssI380
(dp563
S';'
I405
ssI381
(dp564
S'}'
I-101
ssI382
(dp565
g497
I364
sg155
I108
sg499
I374
sg500
I368
sS'-'
I369
sg501
I373
sg502
I375
sg503
I372
sg504
I379
ssI383
(dp566
S';'
I407
ssI384
(dp567
S';'
I408
ssI385
(dp568
S')'
I-76
ssI386
(dp569
g111
I80
sg112
I64
sg113
I71
sg114
I76
sS'('
I73
sg115
I65
sg116
I77
sg117
I67
sg118
I74
sg119
I87
sg120
I90
sg121
I91
sg122
I92
sg123
I86
sg124
I69
sg125
I81
sg126
I82
sg127
I85
sg128
I89
ssI387
(dp570
S'>'
I410
ssI388
(dp571
S';'
I411
ssI389
(dp572
g4
I-144
sg5
I-144
sg6
I-144
sg7
I-144
sg8
I-144
sg9
I-144
sg10
I-144
sg11
I-144
sg12
I-144
sg13
I-144
sg14
I-144
sg15
I-144
sS'('
I-144
sg17
I-144
sg18
I-144
sg19
I-144
sg20
I-144
sg25
I-144
sg26
I-144
sg28
I-144
sg29
I-144
sg30
I-144
sg31
I-144
sg32
I-144
sS'['
I-144
sg34
I-144
sg35
I-144
sg37
I-144
sg38
I-144
sg39
I-144
sS'}'
I-144
sg41
I-144
sg42
I-144
sg43
I-144
sg45
I-144
sg46
I-144
sg47
I-144
sg48
I-144
sg49
I-144
ssI390
(dp573
g4
I-152
sg5
I-152
sg6
I-152
sg7
I-152
sg8
I-152
sg9
I-152
sg10
I-152
sg11
I-152
sg12
I-152
sg13
I-152
sg14
I-152
sg15
I-152
sS'('
I-152
sg17
I-152
sg18
I-152
sg19
I-152
sg20
I-152
sg25
I-152
sg26
I-152
sg28
I-152
sg29
I-152
sg30
I-152
sg31
I-152
sg32
I-152
sS'['
I-152
sg34
I-152
sg35
I-152
sg37
I-152
sg38
I-152
sg39
I-152
sS'}'
I-152
sg41
I-152
sg42
I-152
sg43
I-152
sg45
I-152
sg46
I-152
sg47
I-152
sg48
I-152
sg49
I-152
ssI391
(dp574
g111
I80
sg112
I64
sg113
I71
sg114
I76
sS'('
I73
sg115
I65
sg116
I77
sg117
I67
sg118
I74
sg119
I87
sg120
I90
sg121
I91
sg122
I92
sg123
I86
sg124
I69
sg125
I81
sg126
I82
sg127
I85
sg128
I89
ssI392
(dp575
S']'
I413
ssI393
(dp576
S']'
I-128
ssI394
(dp577
S')'
I-247
sS']'
I-247
sS'}'
I-247
sS','
I192
ssI395
(dp578
S'}'
I-123
ssI396
(dp579
S')'
I-247
sS']'
I-247
sS'}'
I-247
sS','
I416
ssI397
(dp580
S'}'
I417
ssI398
(dp581
S'}'
I-122
ssI399
(dp582
S')'
I-247
sS']'
I-247
sS'}'
I-247
sS','
I192
ssI400
(dp583
g4
I-117
sg5
I-117
sg6
I-117
sg7
I-117
sg8
I-117
sg9
I-117
sg10
I-117
sg11
I-117
sg12
I-117
sg13
I-117
sg14
I-117
sg15
I-117
sS'('
I-117
sg17
I-117
sg18
I-117
sg19
I-117
sg20
I-117
sg25
I-117
sg26
I-117
sg28
I-117
sg29
I-117
sg30
I-117
sg31
I-117
sg32
I-117
sS'['
I-117
sg34
I-117
sg35
I-117
sg37
I-117
sg38
I-117
sg39
I-117
sS'}'
I-117
sg41
I-117
sg42
I-117
sg43
I-117
sg45
I-117
sg46
I-117
sg47
I-117
sg48
I-117
sg49
I-117
ssI401
(dp584
S';'
I419
ssI402
(dp585
S')'
I420
ssI403
(dp586
S')'
I-112
sS';'
I-112
sS','
I-112
ssI404
(dp587
S')'
I-85
sS';'
I-85
sS','
I-85
ssI405
(dp588
g4
I-67
sg9
I-67
sg11
I-67
sg12
I-67
sg14
I-67
sS'('
I-67
sg16
I-67
sg17
I-67
sg18
I-67
sg25
I-67
sg28
I-67
sg32
I-67
sS'['
I-67
sg46
I-67
sg47
I-67
sg39
I-67
sg41
I-67
sg42
I-67
sg45
I-67
sg35
I-67
sS'}'
I-67
sg48
I-67
ssI406
(dp589
S';'
I421
ssI407
(dp590
g4
I-36
sg5
I-36
sg9
I-36
sg11
I-36
sg12
I-36
sg14
I-36
sS'('
I-36
sg17
I-36
sg18
I-36
sg19
I-36
sg25
I-36
sg28
I-36
sg32
I-36
sS'['
I-36
sg46
I-36
sg38
I-36
sg39
I-36
sS'}'
I-36
sg41
I-36
sg42
I-36
sg43
I-36
sg45
I-36
sg35
I-36
sg47
I-36
sg48
I-36
ssI408
(dp591
g4
I-33
sg5
I-33
sg9
I-33
sg11
I-33
sg12
I-33
sg14
I-33
sS'('
I-33
sg17
I-33
sg18
I-33
sg19
I-33
sg25
I-33
sg28
I-33
sg32
I-33
sS'['
I-33
sg46
I-33
sg38
I-33
sg39
I-33
sS'}'
I-33
sg41
I-33
sg42
I-33
sg43
I-33
sg45
I-33
sg35
I-33
sg47
I-33
sg48
I-33
ssI409
(dp592
S'>'
I-180
ssI410
(dp593
S';'
I422
ssI411
(dp594
g4
I-185
sg5
I-185
sg6
I-185
sg7
I-185
sg8
I-185
sg9
I-185
sg10
I-185
sg11
I-185
sg12
I-185
sg13
I-185
sg14
I-185
sg15
I-185
sS'('
I-185
sg17
I-185
sg18
I-185
sg19
I-185
sg20
I-185
sg25
I-185
sg26
I-185
sg28
I-185
sg29
I-185
sg30
I-185
sg31
I-185
sg32
I-185
sS'['
I-185
sg34
I-185
sg35
I-185
sg37
I-185
sg38
I-185
sg39
I-185
sS'}'
I-185
sg41
I-185
sg42
I-185
sg43
I-185
sg45
I-185
sg46
I-185
sg47
I-185
sg48
I-185
sg49
I-185
ssI412
(dp595
S'>'
I423
ssI413
(dp596
S';'
I-120
ssI414
(dp597
S']'
I-129
ssI415
(dp598
S'}'
I-125
ssI416
(dp599
S'ATTRIBUTE'
p600
I424
sg348
I280
ssI417
(dp601
S';'
I-119
ssI418
(dp602
S'}'
I-126
ssI419
(dp603
g4
I-179
sg5
I-179
sg6
I-179
sg7
I-179
sg8
I-179
sg9
I-179
sg10
I-179
sg11
I-179
sg12
I-179
sg13
I-179
sg14
I-179
sg15
I-179
sS'('
I-179
sg17
I-179
sg18
I-179
sg19
I-179
sg20
I-179
sg25
I-179
sg26
I-179
sg28
I-179
sg29
I-179
sg30
I-179
sg31
I-179
sg32
I-179
sS'['
I-179
sg34
I-179
sg35
I-179
sg37
I-179
sg38
I-179
sg39
I-179
sS'}'
I-179
sg41
I-179
sg42
I-179
sg43
I-179
sg45
I-179
sg46
I-179
sg47
I-179
sg48
I-179
sg49
I-179
ssI420
(dp604
S';'
I425
ssI421
(dp605
g4
I-107
sg5
I-107
sg6
I-107
sg7
I-107
sg8
I-107
sg9
I-107
sg10
I-107
sg11
I-107
sg12
I-107
sg13
I-107
sg14
I-107
sg15
I-107
sS'('
I-107
sg17
I-107
sg18
I-107
sg19
I-107
sg20
I-107
sg25
I-107
sg26
I-107
sg28
I-107
sg29
I-107
sg30
I-107
sg31
I-107
sg32
I-107
sS'['
I-107
sg34
I-107
sg35
I-107
sg37
I-107
sg38
I-107
sg39
I-107
sS'}'
I-107
sg41
I-107
sg42
I-107
sg43
I-107
sg45
I-107
sg46
I-107
sg47
I-107
sg48
I-107
sg49
I-107
ssI422
(dp606
g4
I-178
sg5
I-178
sg6
I-178
sg7
I-178
sg8
I-178
sg9
I-178
sg10
I-178
sg11
I-178
sg12
I-178
sg13
I-178
sg14
I-178
sg15
I-178
sS'('
I-178
sg17
I-178
sg18
I-178
sg19
I-178
sg20
I-178
sg25
I-178
sg26
I-178
sg28
I-178
sg29
I-178
sg30
I-178
sg31
I-178
sg32
I-178
sS'['
I-178
sg34
I-178
sg35
I-178
sg37
I-178
sg38
I-178
sg39
I-178
sS'}'
I-178
sg41
I-178
sg42
I-178
sg43
I-178
sg45
I-178
sg46
I-178
sg47
I-178
sg48
I-178
sg49
I-178
ssI423
(dp607
S';'
I426
ssI424
(dp608
S'}'
I-124
ssI425
(dp609
g4
I-160
sg5
I-160
sg6
I-160
sg7
I-160
sg8
I-160
sg9
I-160
sg10
I-160
sg11
I-160
sg12
I-160
sg13
I-160
sg14
I-160
sg15
I-160
sS'('
I-160
sg17
I-160
sg18
I-160
sg19
I-160
sg20
I-160
sg25
I-160
sg26
I-160
sg28
I-160
sg29
I-160
sg30
I-160
sg31
I-160
sg32
I-160
sS'['
I-160
sg34
I-160
sg35
I-160
sg37
I-160
sg38
I-160
sg39
I-160
sS'}'
I-160
sg41
I-160
sg42
I-160
sg43
I-160
sg45
I-160
sg46
I-160
sg47
I-160
sg48
I-160
sg49
I-160
ssI426
(dp610
g4
I-184
sg5
I-184
sg6
I-184
sg7
I-184
sg8
I-184
sg9
I-184
sg10
I-184
sg11
I-184
sg12
I-184
sg13
I-184
sg14
I-184
sg15
I-184
sS'('
I-184
sg17
I-184
sg18
I-184
sg19
I-184
sg20
I-184
sg25
I-184
sg26
I-184
sg28
I-184
sg29
I-184
sg30
I-184
sg31
I-184
sg32
I-184
sS'['
I-184
sg34
I-184
sg35
I-184
sg37
I-184
sg38
I-184
sg39
I-184
sS'}'
I-184
sg41
I-184
sg42
I-184
sg43
I-184
sg45
I-184
sg46
I-184
sg47
I-184
sg48
I-184
sg49
I-184
ss.(dp1
I0
(dp2
S'Definitions'
p3
I2
sS'ExtendedAttributeList'
p4
I1
ssI1
(dp5
S'Definition'
p6
I9
sS'Exception'
p7
I10
sS'Partial'
p8
I17
sS'Dictionary'
p9
I6
sS'CallbackOrInterface'
p10
I5
sS'Enum'
p11
I7
sS'Typedef'
p12
I4
sS'Interface'
p13
I8
sS'ImplementsStatement'
p14
I14
ssI2
(dp15
sI3
(dp16
S'ExtendedAttribute'
p17
I23
sS'ExtendedAttributeStringLiteral'
p18
I24
sS'ExtendedAttributeNamedArgList'
p19
I22
sS'ExtendedAttributeArgList'
p20
I26
sS'ExtendedAttributeIdentList'
p21
I27
sS'ExtendedAttributeIdent'
p22
I25
sS'ExtendedAttributeNoArgs'
p23
I28
sS'ExtendedAttributeStringLiteralList'
p24
I29
ssI4
(dp25
sI5
(dp26
sI6
(dp27
sI7
(dp28
sI8
(dp29
sI9
(dp30
S'Definitions'
p31
I32
sg4
I1
ssI10
(dp32
sI11
(dp33
sI12
(dp34
sI13
(dp35
sI14
(dp36
sI15
(dp37
S'ExtendedAttributeListNoComments'
p38
I38
ssI16
(dp39
S'PartialDictionary'
p40
I41
sS'PartialInterface'
p41
I46
sS'PartialDefinition'
p42
I43
ssI17
(dp43
sI18
(dp44
S'Interface'
p45
I49
sS'CallbackRestOrInterface'
p46
I47
sS'CallbackRest'
p47
I48
ssI19
(dp48
sI20
(dp49
sI21
(dp50
sI22
(dp51
sI23
(dp52
S'ExtendedAttributes'
p53
I54
ssI24
(dp54
sI25
(dp55
sI26
(dp56
sI27
(dp57
sI28
(dp58
sI29
(dp59
sI30
(dp60
sI31
(dp61
sI32
(dp62
sI33
(dp63
sI34
(dp64
S'Inheritance'
p65
I60
ssI35
(dp66
sI36
(dp67
sI37
(dp68
S'Inheritance'
p69
I63
ssI38
(dp70
S'NonAnyType'
p71
I75
sS'FloatType'
p72
I72
sS'UnionType'
p73
I83
sS'UnsignedIntegerType'
p74
I88
sS'PromiseType'
p75
I78
sS'PrimitiveType'
p76
I66
sS'SingleType'
p77
I68
sS'Type'
p78
I70
sS'UnrestrictedFloatType'
p79
I84
sS'IntegerType'
p80
I79
ssI39
(dp81
sI40
(dp82
S'ExtendedAttribute'
p83
I94
sg18
I24
sg19
I22
sg20
I26
sg21
I27
sg22
I25
sg23
I28
sg24
I29
ssI41
(dp84
sI42
(dp85
sI43
(dp86
sI44
(dp87
sI45
(dp88
sI46
(dp89
sI47
(dp90
sI48
(dp91
sI49
(dp92
sI50
(dp93
sI51
(dp94
sI52
(dp95
S'Inheritance'
p96
I99
ssI53
(dp97
sI54
(dp98
sI55
(dp99
S'ExtendedAttribute'
p100
I102
sg18
I24
sg19
I22
sg20
I26
sg21
I27
sg22
I25
sg23
I28
sg24
I29
ssI56
(dp101
S'ArgumentList'
p102
I104
sS'ExtendedAttributeList'
p103
I106
sS'Argument'
p104
I105
ssI57
(dp105
S'StringLiteral'
p106
I110
ssI58
(dp107
sI59
(dp108
sI60
(dp109
sI61
(dp110
sI62
(dp111
S'ExtendedAttributeList'
p112
I115
sS'EnumValueList'
p113
I114
ssI63
(dp114
sI64
(dp115
sI65
(dp116
sI66
(dp117
S'TypeSuffix'
p118
I117
ssI67
(dp119
g80
I120
ssI68
(dp120
sI69
(dp121
sI70
(dp122
sI71
(dp123
sI72
(dp124
sI73
(dp125
S'UnionMemberType'
p126
I123
sS'NonAnyType'
p127
I124
sg72
I72
sg74
I88
sg75
I78
sg76
I66
sS'UnionType'
p128
I122
sg79
I84
sg80
I79
ssI74
(dp129
S'OptionalLong'
p130
I126
ssI75
(dp131
sI76
(dp132
sI77
(dp133
sI78
(dp134
S'Null'
p135
I129
ssI79
(dp136
sI80
(dp137
sI81
(dp138
sI82
(dp139
sI83
(dp140
S'TypeSuffix'
p141
I131
ssI84
(dp142
sI85
(dp143
S'TypeSuffix'
p144
I132
ssI86
(dp145
sI87
(dp146
sI88
(dp147
sI89
(dp148
S'TypeSuffixStartingWithArray'
p149
I134
ssI90
(dp150
sI91
(dp151
sI92
(dp152
g72
I136
ssI93
(dp153
sI94
(dp154
S'ExtendedAttributes'
p155
I137
ssI95
(dp156
sI96
(dp157
sI97
(dp158
sI98
(dp159
g71
I75
sg72
I72
sS'Type'
p160
I143
sg74
I88
sg75
I78
sg76
I66
sg77
I68
sS'ReturnType'
p161
I144
sg73
I83
sg79
I84
sg80
I79
ssI99
(dp162
sI100
(dp163
sI101
(dp164
sI102
(dp165
S'ExtendedAttributes'
p166
I147
ssI103
(dp167
sI104
(dp168
sI105
(dp169
S'Arguments'
p170
I150
ssI106
(dp171
g71
I75
sg74
I88
sg72
I72
sg73
I83
sg76
I66
sg75
I78
sS'OptionalOrRequiredArgument'
p172
I153
sg80
I79
sg77
I68
sS'Type'
p173
I151
sg79
I84
ssI107
(dp174
sI108
(dp175
sI109
(dp176
S'StringLiteralList'
p177
I156
sS'StringLiteral'
p178
I154
sS'IdentifierList'
p179
I155
ssI110
(dp180
sI111
(dp181
sI112
(dp182
sI113
(dp183
S'ExtendedAttributeList'
p184
I160
sS'DictionaryMembers'
p185
I159
ssI114
(dp186
sI115
(dp187
sI116
(dp188
S'ExtendedAttributeList'
p189
I165
sS'ExceptionMembers'
p190
I164
ssI117
(dp191
sI118
(dp192
sI119
(dp193
S'TypeSuffixStartingWithArray'
p194
I168
ssI120
(dp195
sI121
(dp196
sI122
(dp197
S'TypeSuffix'
p198
I170
ssI123
(dp199
sI124
(dp200
sI125
(dp201
sI126
(dp202
sI127
(dp203
sI128
(dp204
g71
I75
sg72
I72
sg73
I83
sg74
I88
sg75
I78
sg76
I66
sg77
I68
sS'Type'
p205
I173
sg79
I84
sg80
I79
ssI129
(dp206
sI130
(dp207
sI131
(dp208
sI132
(dp209
sI133
(dp210
sI134
(dp211
sI135
(dp212
g71
I75
sg72
I72
sg73
I83
sg74
I88
sg75
I78
sg76
I66
sg77
I68
sS'ReturnType'
p213
I175
sg160
I143
sg79
I84
sg80
I79
ssI136
(dp214
sI137
(dp215
sI138
(dp216
S'ExtendedAttribute'
p217
I102
sg18
I24
sg19
I22
sg20
I26
sg21
I27
sg22
I25
sg23
I28
sg24
I29
ssI139
(dp218
sI140
(dp219
S'DictionaryMembers'
p220
I177
sg184
I160
ssI141
(dp221
S'InterfaceMembers'
p222
I178
sS'ExtendedAttributeList'
p223
I179
ssI142
(dp224
sI143
(dp225
sI144
(dp226
sI145
(dp227
S'InterfaceMembers'
p228
I182
sg223
I179
ssI146
(dp229
sI147
(dp230
sI148
(dp231
sI149
(dp232
g103
I106
sS'Argument'
p233
I184
ssI150
(dp234
sI151
(dp235
S'Ellipsis'
p236
I186
ssI152
(dp237
g71
I75
sg72
I72
sg173
I188
sg74
I88
sg75
I78
sg76
I66
sg77
I68
sg73
I83
sg79
I84
sg80
I79
ssI153
(dp238
sI154
(dp239
sI155
(dp240
sI156
(dp241
sI157
(dp242
S'Identifiers'
p243
I193
ssI158
(dp244
S'ArgumentList'
p245
I194
sg103
I106
sg104
I105
ssI159
(dp246
sI160
(dp247
S'DictionaryMember'
p248
I198
sS'Required'
p249
I197
ssI161
(dp250
sI162
(dp251
sI163
(dp252
S'EnumValueListComma'
p253
I201
ssI164
(dp254
sI165
(dp255
g71
I75
sS'Const'
p256
I203
sg74
I88
sg72
I72
sg73
I83
sS'ExceptionMember'
p257
I210
sg76
I66
sS'Attribute'
p258
I204
sg75
I78
sS'ReadOnly'
p259
I211
sS'ExceptionOperation'
p260
I205
sg80
I79
sg77
I68
sS'ExceptionField'
p261
I206
sS'Type'
p262
I208
sg79
I84
ssI166
(dp263
sI167
(dp264
S'TypeSuffix'
p265
I213
ssI168
(dp266
sI169
(dp267
sI170
(dp268
sI171
(dp269
g126
I214
sg127
I124
sg72
I72
sg74
I88
sg75
I78
sg76
I66
sg128
I122
sg79
I84
sg80
I79
ssI172
(dp270
sI173
(dp271
sI174
(dp272
S'TypeSuffix'
p273
I217
ssI175
(dp274
sI176
(dp275
sI177
(dp276
sI178
(dp277
sI179
(dp278
S'InterfaceMember'
p279
I241
sS'AttributeRest'
p280
I242
sS'MaplikeRest'
p281
I222
sg77
I68
sS'Const'
p282
I221
sS'Type'
p283
I143
sS'Stringifier'
p284
I232
sg72
I72
sS'StaticMember'
p285
I224
sS'ReadonlyMember'
p286
I247
sg71
I75
sS'SpecialOperation'
p287
I249
sg75
I78
sg76
I66
sS'ReadWriteSetlike'
p288
I235
sS'ReturnType'
p289
I251
sg73
I83
sg79
I84
sS'Serializer'
p290
I244
sS'ReadWriteAttribute'
p291
I237
sS'SetlikeRest'
p292
I240
sg74
I88
sS'ReadWriteMaplike'
p293
I226
sS'Iterable'
p294
I228
sS'Operation'
p295
I236
sS'Special'
p296
I245
sg80
I79
ssI180
(dp297
sI181
(dp298
S'ArgumentList'
p299
I253
sg103
I106
sg104
I105
ssI182
(dp300
sI183
(dp301
sI184
(dp302
S'Arguments'
p303
I255
ssI185
(dp304
sI186
(dp305
S'ArgumentName'
p306
I261
sS'ArgumentNameKeyword'
p307
I273
ssI187
(dp308
sI188
(dp309
S'ArgumentName'
p310
I278
sg307
I273
ssI189
(dp311
S'StringLiteralList'
p312
I279
sg178
I154
ssI190
(dp313
sI191
(dp314
sI192
(dp315
sI193
(dp316
sI194
(dp317
sI195
(dp318
sI196
(dp319
sI197
(dp320
g71
I75
sg72
I72
sg73
I83
sg74
I88
sg75
I78
sg76
I66
sg77
I68
sS'Type'
p321
I283
sg79
I84
sg80
I79
ssI198
(dp322
g184
I160
sS'DictionaryMembers'
p323
I284
ssI199
(dp324
sI200
(dp325
S'ExtendedAttributeList'
p326
I285
sS'EnumValueListString'
p327
I286
ssI201
(dp328
sI202
(dp329
sI203
(dp330
sI204
(dp331
sI205
(dp332
sI206
(dp333
sI207
(dp334
S'ConstType'
p335
I290
sg74
I88
sg72
I72
sS'PrimitiveType'
p336
I288
sg80
I79
sg79
I84
ssI208
(dp337
sI209
(dp338
sI210
(dp339
g189
I165
sS'ExceptionMembers'
p340
I292
ssI211
(dp341
sI212
(dp342
sI213
(dp343
sI214
(dp344
S'UnionMemberTypes'
p345
I295
ssI215
(dp346
S'TypeSuffix'
p347
I296
ssI216
(dp348
S'Null'
p349
I297
ssI217
(dp350
sI218
(dp351
sI219
(dp352
sI220
(dp353
sI221
(dp354
sI222
(dp355
sI223
(dp356
sI224
(dp357
sI225
(dp358
sI226
(dp359
sI227
(dp360
sI228
(dp361
sI229
(dp362
sI230
(dp363
g71
I75
sg72
I72
sg160
I143
sS'StaticMemberRest'
p364
I302
sg76
I66
sg75
I78
sS'ReadOnly'
p365
I304
sg74
I88
sg77
I68
sS'ReturnType'
p366
I303
sg73
I83
sg79
I84
sg80
I79
ssI231
(dp367
sI232
(dp368
sI233
(dp369
S'ReadonlyMemberRest'
p370
I308
sS'SetlikeRest'
p371
I306
sS'MaplikeRest'
p372
I307
sS'AttributeRest'
p373
I305
ssI234
(dp374
sI235
(dp375
sI236
(dp376
sI237
(dp377
sI238
(dp378
g71
I75
sS'StringifierRest'
p379
I310
sS'Type'
p380
I143
sg72
I72
sg76
I66
sg75
I78
sS'AttributeRest'
p381
I309
sg74
I88
sg77
I68
sS'ReturnType'
p382
I312
sg73
I83
sg79
I84
sg80
I79
ssI239
(dp383
g71
I75
sg72
I72
sg73
I83
sg74
I88
sg75
I78
sg76
I66
sg77
I68
sg380
I313
sg79
I84
sg80
I79
ssI240
(dp384
sI241
(dp385
S'InterfaceMembers'
p386
I314
sg223
I179
ssI242
(dp387
sI243
(dp388
S'ReadOnly'
p389
I315
ssI244
(dp390
sI245
(dp391
S'Specials'
p392
I316
sg296
I317
ssI246
(dp393
sI247
(dp394
sI248
(dp395
S'SerializerRest'
p396
I319
sg71
I75
sg72
I72
sg160
I143
sg74
I88
sg75
I78
sg76
I66
sg77
I68
sS'ReturnType'
p397
I322
sg73
I83
sg79
I84
sg80
I79
ssI249
(dp398
sI250
(dp399
sI251
(dp400
S'OperationRest'
p401
I324
sS'OptionalIdentifier'
p402
I325
ssI252
(dp403
sI253
(dp404
sI254
(dp405
sI255
(dp406
sI256
(dp407
sI257
(dp408
sI258
(dp409
sI259
(dp410
sI260
(dp411
sI261
(dp412
sI262
(dp413
sI263
(dp414
sI264
(dp415
sI265
(dp416
sI266
(dp417
sI267
(dp418
sI268
(dp419
sI269
(dp420
sI270
(dp421
sI271
(dp422
sI272
(dp423
sI273
(dp424
sI274
(dp425
sI275
(dp426
sI276
(dp427
sI277
(dp428
sI278
(dp429
S'Default'
p430
I330
ssI279
(dp431
sI280
(dp432
S'Identifiers'
p433
I331
ssI281
(dp434
sI282
(dp435
sI283
(dp436
sI284
(dp437
sI285
(dp438
sI286
(dp439
sI287
(dp440
sI288
(dp441
S'Null'
p442
I334
ssI289
(dp443
S'Null'
p444
I335
ssI290
(dp445
sI291
(dp446
sI292
(dp447
sI293
(dp448
g71
I75
sg72
I72
sg73
I83
sg74
I88
sg75
I78
sg76
I66
sg77
I68
sS'Type'
p449
I339
sg79
I84
sg80
I79
ssI294
(dp450
S'UnionMemberType'
p451
I340
sg127
I124
sg72
I72
sg74
I88
sg75
I78
sg76
I66
sg128
I122
sg79
I84
sg80
I79
ssI295
(dp452
sI296
(dp453
sI297
(dp454
sI298
(dp455
sI299
(dp456
sI300
(dp457
g71
I75
sg72
I72
sg73
I83
sg74
I88
sg75
I78
sg76
I66
sg77
I68
sg283
I342
sg79
I84
sg80
I79
ssI301
(dp458
g71
I75
sg72
I72
sg73
I83
sg74
I88
sg75
I78
sg76
I66
sg77
I68
sS'Type'
p459
I343
sg79
I84
sg80
I79
ssI302
(dp460
sI303
(dp461
S'OperationRest'
p462
I344
sg402
I325
ssI304
(dp463
S'AttributeRest'
p464
I345
ssI305
(dp465
sI306
(dp466
sI307
(dp467
sI308
(dp468
sI309
(dp469
sI310
(dp470
sI311
(dp471
sI312
(dp472
S'OperationRest'
p473
I346
sg402
I325
ssI313
(dp474
S'AttributeName'
p475
I348
sS'AttributeNameKeyword'
p476
I350
ssI314
(dp477
sI315
(dp478
g280
I351
ssI316
(dp479
g71
I75
sg72
I72
sg160
I143
sg76
I66
sg75
I78
sg74
I88
sg77
I68
sS'ReturnType'
p480
I352
sg73
I83
sg79
I84
sg80
I79
ssI317
(dp481
S'Specials'
p482
I353
sS'Special'
p483
I317
ssI318
(dp484
g71
I75
sg72
I72
sg73
I83
sg74
I88
sg75
I78
sg76
I66
sg77
I68
sS'Type'
p485
I354
sg79
I84
sg80
I79
ssI319
(dp486
sI320
(dp487
sI321
(dp488
S'SerializationPattern'
p489
I358
ssI322
(dp490
S'OperationRest'
p491
I359
sg402
I325
ssI323
(dp492
g71
I75
sg72
I72
sg73
I83
sg74
I88
sg75
I78
sg76
I66
sg77
I68
sS'Type'
p493
I360
sg79
I84
sg80
I79
ssI324
(dp494
sI325
(dp495
sI326
(dp496
sI327
(dp497
sI328
(dp498
sI329
(dp499
S'DefaultValue'
p500
I367
sS'ConstValue'
p501
I378
sS'StringLiteral'
p502
I370
sS'FloatLiteral'
p503
I377
sS'BooleanLiteral'
p504
I371
sS'null'
p505
I363
sS'IntegerLiteral'
p506
I366
ssI330
(dp507
sI331
(dp508
sI332
(dp509
S'Default'
p510
I380
ssI333
(dp511
S'EnumValueListComma'
p512
I381
ssI334
(dp513
sI335
(dp514
sI336
(dp515
sI337
(dp516
sI338
(dp517
sI339
(dp518
sI340
(dp519
S'UnionMemberTypes'
p520
I385
ssI341
(dp521
sI342
(dp522
S'OptionalType'
p523
I387
ssI343
(dp524
sI344
(dp525
sI345
(dp526
sI346
(dp527
sI347
(dp528
sI348
(dp529
sI349
(dp530
sI350
(dp531
sI351
(dp532
sI352
(dp533
S'OperationRest'
p534
I390
sg402
I325
ssI353
(dp535
sI354
(dp536
sI355
(dp537
S'SerializationPatternList'
p538
I392
ssI356
(dp539
sI357
(dp540
S'SerializationPatternMap'
p541
I397
ssI358
(dp542
sI359
(dp543
sI360
(dp544
sI361
(dp545
S'ArgumentList'
p546
I402
sg103
I106
sg104
I105
ssI362
(dp547
sI363
(dp548
sI364
(dp549
sI365
(dp550
sI366
(dp551
sI367
(dp552
sI368
(dp553
sI369
(dp554
sI370
(dp555
sI371
(dp556
sI372
(dp557
sI373
(dp558
sI374
(dp559
sI375
(dp560
sI376
(dp561
sI377
(dp562
sI378
(dp563
sI379
(dp564
sI380
(dp565
sI381
(dp566
sI382
(dp567
S'ConstValue'
p568
I406
sg502
I370
sg504
I371
sg503
I377
sg505
I363
sg506
I366
ssI383
(dp569
sI384
(dp570
sI385
(dp571
sI386
(dp572
g71
I75
sg72
I72
sg73
I83
sg74
I88
sg75
I78
sg76
I66
sg77
I68
sS'Type'
p573
I409
sg79
I84
sg80
I79
ssI387
(dp574
sI388
(dp575
sI389
(dp576
sI390
(dp577
sI391
(dp578
g71
I75
sg72
I72
sg73
I83
sg74
I88
sg75
I78
sg76
I66
sg77
I68
sg485
I412
sg79
I84
sg80
I79
ssI392
(dp579
sI393
(dp580
sI394
(dp581
S'Identifiers'
p582
I414
ssI395
(dp583
sI396
(dp584
S'Identifiers'
p585
I415
ssI397
(dp586
sI398
(dp587
sI399
(dp588
S'Identifiers'
p589
I418
ssI400
(dp590
sI401
(dp591
sI402
(dp592
sI403
(dp593
sI404
(dp594
sI405
(dp595
sI406
(dp596
sI407
(dp597
sI408
(dp598
sI409
(dp599
sI410
(dp600
sI411
(dp601
sI412
(dp602
sI413
(dp603
sI414
(dp604
sI415
(dp605
sI416
(dp606
sI417
(dp607
sI418
(dp608
sI419
(dp609
sI420
(dp610
sI421
(dp611
sI422
(dp612
sI423
(dp613
sI424
(dp614
sI425
(dp615
sI426
(dp616
s.(lp1
(S"S' -> Definitions"
p2
S"S'"
p3
I1
NNNtp4
a(S'Definitions -> ExtendedAttributeList Definition Definitions'
p5
S'Definitions'
p6
I3
S'p_Definitions'
p7
S'blink_idl_parser.py'
p8
I108
tp9
a(S'Definitions -> <empty>'
p10
g6
I0
g7
g8
I109
tp11
a(S'Definition -> CallbackOrInterface'
p12
S'Definition'
p13
I1
S'p_Definition'
p14
S'..\\..\\..\\..\\..\\tools\\idl_parser\\idl_parser.py'
p15
I198
tp16
a(S'Definition -> Partial'
p17
g13
I1
g14
g15
I199
tp18
a(S'Definition -> Dictionary'
p19
g13
I1
g14
g15
I200
tp20
a(S'Definition -> Exception'
p21
g13
I1
g14
g15
I201
tp22
a(S'Definition -> Enum'
p23
g13
I1
g14
g15
I202
tp24
a(S'Definition -> Typedef'
p25
g13
I1
g14
g15
I203
tp26
a(S'Definition -> ImplementsStatement'
p27
g13
I1
g14
g15
I204
tp28
a(S'Definition -> error ;'
p29
S'Definition'
p30
I2
S'p_DefinitionError'
p31
S'..\\..\\..\\..\\..\\tools\\idl_parser\\idl_parser.py'
p32
I209
tp33
a(S'CallbackOrInterface -> CALLBACK CallbackRestOrInterface'
p34
S'CallbackOrInterface'
p35
I2
S'p_CallbackOrInterface'
p36
S'blink_idl_parser.py'
p37
I209
tp38
a(S'CallbackOrInterface -> Interface'
p39
g35
I1
g36
g37
I210
tp40
a(S'ConstValue -> BooleanLiteral'
p41
S'ConstValue'
p42
I1
S'p_ConstValue'
p43
S'blink_idl_parser.py'
p44
I220
tp45
a(S'ConstValue -> FloatLiteral'
p46
g42
I1
g43
g44
I221
tp47
a(S'ConstValue -> IntegerLiteral'
p48
g42
I1
g43
g44
I222
tp49
a(S'ConstValue -> StringLiteral'
p50
g42
I1
g43
g44
I223
tp51
a(S'ConstValue -> null'
p52
g42
I1
g43
g44
I224
tp53
a(S'CallbackRestOrInterface -> CallbackRest'
p54
S'CallbackRestOrInterface'
p55
I1
S'p_CallbackRestOrInterface'
p56
S'..\\..\\..\\..\\..\\tools\\idl_parser\\idl_parser.py'
p57
I223
tp58
a(S'CallbackRestOrInterface -> Interface'
p59
g55
I1
g56
g57
I224
tp60
a(S'Interface -> INTERFACE identifier Inheritance { InterfaceMembers } ;'
p61
S'Interface'
p62
I7
S'p_Interface'
p63
S'..\\..\\..\\..\\..\\tools\\idl_parser\\idl_parser.py'
p64
I229
tp65
a(S'Interface -> INTERFACE identifier Inheritance { error'
p66
S'Interface'
p67
I5
S'p_InterfaceError'
p68
S'..\\..\\..\\..\\..\\tools\\idl_parser\\idl_parser.py'
p69
I234
tp70
a(S'IntegerLiteral -> integer'
p71
S'IntegerLiteral'
p72
I1
S'p_IntegerLiteral'
p73
S'blink_idl_parser.py'
p74
I234
tp75
a(S'Partial -> PARTIAL PartialDefinition'
p76
S'Partial'
p77
I2
S'p_Partial'
p78
S'..\\..\\..\\..\\..\\tools\\idl_parser\\idl_parser.py'
p79
I239
tp80
a(S'StringLiteral -> string'
p81
S'StringLiteral'
p82
I1
S'p_StringLiteral'
p83
S'blink_idl_parser.py'
p84
I240
tp85
a(S'Partial -> PARTIAL error'
p86
S'Partial'
p87
I2
S'p_PartialError'
p88
S'..\\..\\..\\..\\..\\tools\\idl_parser\\idl_parser.py'
p89
I245
tp90
a(S'ExceptionMember -> Const'
p91
S'ExceptionMember'
p92
I1
S'p_ExceptionMember'
p93
S'blink_idl_parser.py'
p94
I246
tp95
a(S'ExceptionMember -> ExceptionField'
p96
g92
I1
g93
g94
I247
tp97
a(S'ExceptionMember -> Attribute'
p98
g92
I1
g93
g94
I248
tp99
a(S'ExceptionMember -> ExceptionOperation'
p100
g92
I1
g93
g94
I249
tp101
a(S'PartialDefinition -> PartialDictionary'
p102
S'PartialDefinition'
p103
I1
S'p_PartialDefinition'
p104
S'..\\..\\..\\..\\..\\tools\\idl_parser\\idl_parser.py'
p105
I250
tp106
a(S'PartialDefinition -> PartialInterface'
p107
g103
I1
g104
g105
I251
tp108
a(S'PartialInterface -> INTERFACE identifier { InterfaceMembers } ;'
p109
S'PartialInterface'
p110
I6
S'p_PartialInterface'
p111
S'..\\..\\..\\..\\..\\tools\\idl_parser\\idl_parser.py'
p112
I256
tp113
a(S'Attribute -> ReadOnly ATTRIBUTE Type identifier ;'
p114
S'Attribute'
p115
I5
S'p_Attribute'
p116
S'blink_idl_parser.py'
p117
I259
tp118
a(S'InterfaceMembers -> ExtendedAttributeList InterfaceMember InterfaceMembers'
p119
S'InterfaceMembers'
p120
I3
S'p_InterfaceMembers'
p121
S'..\\..\\..\\..\\..\\tools\\idl_parser\\idl_parser.py'
p122
I261
tp123
a(S'InterfaceMembers -> <empty>'
p124
g120
I0
g121
g122
I262
tp125
a(S'ExceptionOperation -> Type identifier ( ) ;'
p126
S'ExceptionOperation'
p127
I5
S'p_ExceptionOperation'
p128
S'blink_idl_parser.py'
p129
I265
tp130
a(S'InterfaceMembers -> error'
p131
S'InterfaceMembers'
p132
I1
S'p_InterfaceMembersError'
p133
S'..\\..\\..\\..\\..\\tools\\idl_parser\\idl_parser.py'
p134
I269
tp135
a(S'InterfaceMember -> Const'
p136
S'InterfaceMember'
p137
I1
S'p_InterfaceMember'
p138
S'..\\..\\..\\..\\..\\tools\\idl_parser\\idl_parser.py'
p139
I274
tp140
a(S'InterfaceMember -> Operation'
p141
g137
I1
g138
g139
I275
tp142
a(S'InterfaceMember -> Serializer'
p143
g137
I1
g138
g139
I276
tp144
a(S'InterfaceMember -> Stringifier'
p145
g137
I1
g138
g139
I277
tp146
a(S'InterfaceMember -> StaticMember'
p147
g137
I1
g138
g139
I278
tp148
a(S'InterfaceMember -> Iterable'
p149
g137
I1
g138
g139
I279
tp150
a(S'InterfaceMember -> ReadonlyMember'
p151
g137
I1
g138
g139
I280
tp152
a(S'InterfaceMember -> ReadWriteAttribute'
p153
g137
I1
g138
g139
I281
tp154
a(S'InterfaceMember -> ReadWriteMaplike'
p155
g137
I1
g138
g139
I282
tp156
a(S'InterfaceMember -> ReadWriteSetlike'
p157
g137
I1
g138
g139
I283
tp158
a(S'ExtendedAttributeList -> [ ExtendedAttribute ExtendedAttributes ]'
p159
S'ExtendedAttributeList'
p160
I4
S'p_ExtendedAttributeList'
p161
S'blink_idl_parser.py'
p162
I277
tp163
a(S'ExtendedAttributeList -> [ ]'
p164
g160
I2
g161
g162
I278
tp165
a(S'ExtendedAttributeList -> <empty>'
p166
g160
I0
g161
g162
I279
tp167
a(S'ExtendedAttributeList -> [ ExtendedAttribute , error'
p168
S'ExtendedAttributeList'
p169
I4
S'p_ExtendedAttributeListError'
p170
S'blink_idl_parser.py'
p171
I287
tp172
a(S'Dictionary -> DICTIONARY identifier Inheritance { DictionaryMembers } ;'
p173
S'Dictionary'
p174
I7
S'p_Dictionary'
p175
S'..\\..\\..\\..\\..\\tools\\idl_parser\\idl_parser.py'
p176
I288
tp177
a(S'Dictionary -> DICTIONARY error ;'
p178
S'Dictionary'
p179
I3
S'p_DictionaryError'
p180
S'..\\..\\..\\..\\..\\tools\\idl_parser\\idl_parser.py'
p181
I293
tp182
a(S'ExtendedAttributes -> , ExtendedAttribute ExtendedAttributes'
p183
S'ExtendedAttributes'
p184
I3
S'p_ExtendedAttributes'
p185
S'blink_idl_parser.py'
p186
I294
tp187
a(S'ExtendedAttributes -> ,'
p188
g184
I1
g185
g186
I295
tp189
a(S'ExtendedAttributes -> <empty>'
p190
g184
I0
g185
g186
I296
tp191
a(S'Dictionary -> DICTIONARY identifier Inheritance { error'
p192
S'Dictionary'
p193
I5
S'p_DictionaryError2'
p194
S'..\\..\\..\\..\\..\\tools\\idl_parser\\idl_parser.py'
p195
I299
tp196
a(S'ExtendedAttribute -> ExtendedAttributeNoArgs'
p197
S'ExtendedAttribute'
p198
I1
S'p_ExtendedAttribute'
p199
S'blink_idl_parser.py'
p200
I302
tp201
a(S'ExtendedAttribute -> ExtendedAttributeArgList'
p202
g198
I1
g199
g200
I303
tp203
a(S'ExtendedAttribute -> ExtendedAttributeIdent'
p204
g198
I1
g199
g200
I304
tp205
a(S'ExtendedAttribute -> ExtendedAttributeIdentList'
p206
g198
I1
g199
g200
I305
tp207
a(S'ExtendedAttribute -> ExtendedAttributeNamedArgList'
p208
g198
I1
g199
g200
I306
tp209
a(S'ExtendedAttribute -> ExtendedAttributeStringLiteral'
p210
g198
I1
g199
g200
I307
tp211
a(S'ExtendedAttribute -> ExtendedAttributeStringLiteralList'
p212
g198
I1
g199
g200
I308
tp213
a(S'DictionaryMembers -> ExtendedAttributeList DictionaryMember DictionaryMembers'
p214
S'DictionaryMembers'
p215
I3
S'p_DictionaryMembers'
p216
S'..\\..\\..\\..\\..\\tools\\idl_parser\\idl_parser.py'
p217
I304
tp218
a(S'DictionaryMembers -> <empty>'
p219
g215
I0
g216
g217
I305
tp220
a(S'DictionaryMember -> Required Type identifier Default ;'
p221
S'DictionaryMember'
p222
I5
S'p_DictionaryMember'
p223
S'..\\..\\..\\..\\..\\tools\\idl_parser\\idl_parser.py'
p224
I312
tp225
a(S'UnionType -> ( UnionMemberType OR UnionMemberType UnionMemberTypes )'
p226
S'UnionType'
p227
I6
S'p_UnionType'
p228
S'blink_idl_parser.py'
p229
I314
tp230
a(S'Required -> REQUIRED'
p231
S'Required'
p232
I1
S'p_Required'
p233
S'..\\..\\..\\..\\..\\tools\\idl_parser\\idl_parser.py'
p234
I317
tp235
a(S'Required -> <empty>'
p236
g232
I0
g233
g234
I318
tp237
a(S'UnionMemberType -> NonAnyType'
p238
S'UnionMemberType'
p239
I1
S'p_UnionMemberType'
p240
S'blink_idl_parser.py'
p241
I320
tp242
a(S'UnionMemberType -> UnionType TypeSuffix'
p243
g239
I2
g240
g241
I321
tp244
a(S'UnionMemberType -> ANY [ ] TypeSuffix'
p245
g239
I4
g240
g241
I322
tp246
a(S'PartialDictionary -> DICTIONARY identifier { DictionaryMembers } ;'
p247
S'PartialDictionary'
p248
I6
S'p_PartialDictionary'
p249
S'..\\..\\..\\..\\..\\tools\\idl_parser\\idl_parser.py'
p250
I324
tp251
a(S'PartialDictionary -> DICTIONARY error ;'
p252
S'PartialDictionary'
p253
I3
S'p_PartialDictionaryError'
p254
S'..\\..\\..\\..\\..\\tools\\idl_parser\\idl_parser.py'
p255
I330
tp256
a(S'UnionMemberTypes -> OR UnionMemberType UnionMemberTypes'
p257
S'UnionMemberTypes'
p258
I3
S'p_UnionMemberTypes'
p259
S'blink_idl_parser.py'
p260
I333
tp261
a(S'UnionMemberTypes -> <empty>'
p262
g258
I0
g259
g260
I334
tp263
a(S'Default -> = DefaultValue'
p264
S'Default'
p265
I2
S'p_Default'
p266
S'..\\..\\..\\..\\..\\tools\\idl_parser\\idl_parser.py'
p267
I335
tp268
a(S'Default -> <empty>'
p269
g265
I0
g266
g267
I336
tp270
a(S'TypeSuffix -> [ ] TypeSuffix'
p271
S'TypeSuffix'
p272
I3
S'p_TypeSuffix'
p273
S'blink_idl_parser.py'
p274
I341
tp275
a(S'TypeSuffix -> ? TypeSuffixStartingWithArray'
p276
g272
I2
g273
g274
I342
tp277
a(S'TypeSuffix -> <empty>'
p278
g272
I0
g273
g274
I343
tp279
a(S'DefaultValue -> ConstValue'
p280
S'DefaultValue'
p281
I1
S'p_DefaultValue'
p282
S'..\\..\\..\\..\\..\\tools\\idl_parser\\idl_parser.py'
p283
I342
tp284
a(S'DefaultValue -> string'
p285
g281
I1
g282
g283
I343
tp286
a(S'DefaultValue -> [ ]'
p287
g281
I2
g282
g283
I344
tp288
a(S'ExtendedAttributeStringLiteral -> identifier = StringLiteral'
p289
S'ExtendedAttributeStringLiteral'
p290
I3
S'p_ExtendedAttributeStringLiteral'
p291
S'blink_idl_parser.py'
p292
I351
tp293
a(S'Exception -> EXCEPTION identifier Inheritance { ExceptionMembers } ;'
p294
S'Exception'
p295
I7
S'p_Exception'
p296
S'..\\..\\..\\..\\..\\tools\\idl_parser\\idl_parser.py'
p297
I356
tp298
a(S'ExceptionMembers -> ExtendedAttributeList ExceptionMember ExceptionMembers'
p299
S'ExceptionMembers'
p300
I3
S'p_ExceptionMembers'
p301
S'..\\..\\..\\..\\..\\tools\\idl_parser\\idl_parser.py'
p302
I361
tp303
a(S'ExceptionMembers -> <empty>'
p304
g300
I0
g301
g302
I362
tp305
a(S'ExtendedAttributeStringLiteralList -> identifier = ( StringLiteralList )'
p306
S'ExtendedAttributeStringLiteralList'
p307
I5
S'p_ExtendedAttributeStringLiteralList'
p308
S'blink_idl_parser.py'
p309
I361
tp310
a(S'StringLiteralList -> StringLiteral , StringLiteralList'
p311
S'StringLiteralList'
p312
I3
S'p_StringLiteralList'
p313
S'blink_idl_parser.py'
p314
I368
tp315
a(S'StringLiteralList -> StringLiteral'
p316
g312
I1
g313
g314
I369
tp317
a(S'ExceptionMembers -> error'
p318
S'ExceptionMembers'
p319
I1
S'p_ExceptionMembersError'
p320
S'..\\..\\..\\..\\..\\tools\\idl_parser\\idl_parser.py'
p321
I369
tp322
a(S'Inheritance -> : identifier'
p323
S'Inheritance'
p324
I2
S'p_Inheritance'
p325
S'..\\..\\..\\..\\..\\tools\\idl_parser\\idl_parser.py'
p326
I374
tp327
a(S'Inheritance -> <empty>'
p328
g324
I0
g325
g326
I375
tp329
a(S'Enum -> ENUM identifier { EnumValueList } ;'
p330
S'Enum'
p331
I6
S'p_Enum'
p332
S'..\\..\\..\\..\\..\\tools\\idl_parser\\idl_parser.py'
p333
I381
tp334
a(S'Enum -> ENUM error ;'
p335
S'Enum'
p336
I3
S'p_EnumError'
p337
S'..\\..\\..\\..\\..\\tools\\idl_parser\\idl_parser.py'
p338
I386
tp339
a(S'EnumValueList -> ExtendedAttributeList string EnumValueListComma'
p340
S'EnumValueList'
p341
I3
S'p_EnumValueList'
p342
S'..\\..\\..\\..\\..\\tools\\idl_parser\\idl_parser.py'
p343
I391
tp344
a(S'EnumValueListComma -> , EnumValueListString'
p345
S'EnumValueListComma'
p346
I2
S'p_EnumValueListComma'
p347
S'..\\..\\..\\..\\..\\tools\\idl_parser\\idl_parser.py'
p348
I397
tp349
a(S'EnumValueListComma -> <empty>'
p350
g346
I0
g347
g348
I398
tp351
a(S'EnumValueListString -> ExtendedAttributeList string EnumValueListComma'
p352
S'EnumValueListString'
p353
I3
S'p_EnumValueListString'
p354
S'..\\..\\..\\..\\..\\tools\\idl_parser\\idl_parser.py'
p355
I404
tp356
a(S'EnumValueListString -> <empty>'
p357
g353
I0
g354
g355
I405
tp358
a(S'CallbackRest -> identifier = ReturnType ( ArgumentList ) ;'
p359
S'CallbackRest'
p360
I7
S'p_CallbackRest'
p361
S'..\\..\\..\\..\\..\\tools\\idl_parser\\idl_parser.py'
p362
I412
tp363
a(S'Typedef -> TYPEDEF ExtendedAttributeListNoComments Type identifier ;'
p364
S'Typedef'
p365
I5
S'p_Typedef'
p366
S'..\\..\\..\\..\\..\\tools\\idl_parser\\idl_parser.py'
p367
I418
tp368
a(S'Typedef -> TYPEDEF error ;'
p369
S'Typedef'
p370
I3
S'p_TypedefError'
p371
S'..\\..\\..\\..\\..\\tools\\idl_parser\\idl_parser.py'
p372
I423
tp373
a(S'ImplementsStatement -> identifier IMPLEMENTS identifier ;'
p374
S'ImplementsStatement'
p375
I4
S'p_ImplementsStatement'
p376
S'..\\..\\..\\..\\..\\tools\\idl_parser\\idl_parser.py'
p377
I428
tp378
a(S'Const -> CONST ConstType identifier = ConstValue ;'
p379
S'Const'
p380
I6
S'p_Const'
p381
S'..\\..\\..\\..\\..\\tools\\idl_parser\\idl_parser.py'
p382
I434
tp383
a(S'null -> NULL'
p384
S'null'
p385
I1
S'p_null'
p386
S'..\\..\\..\\..\\..\\tools\\idl_parser\\idl_parser.py'
p387
I452
tp388
a(S'BooleanLiteral -> TRUE'
p389
S'BooleanLiteral'
p390
I1
S'p_BooleanLiteral'
p391
S'..\\..\\..\\..\\..\\tools\\idl_parser\\idl_parser.py'
p392
I458
tp393
a(S'BooleanLiteral -> FALSE'
p394
g390
I1
g391
g392
I459
tp395
a(S'FloatLiteral -> float'
p396
S'FloatLiteral'
p397
I1
S'p_FloatLiteral'
p398
S'..\\..\\..\\..\\..\\tools\\idl_parser\\idl_parser.py'
p399
I465
tp400
a(S'FloatLiteral -> - INFINITY'
p401
g397
I2
g398
g399
I466
tp402
a(S'FloatLiteral -> INFINITY'
p403
g397
I1
g398
g399
I467
tp404
a(S'FloatLiteral -> NAN'
p405
g397
I1
g398
g399
I468
tp406
a(S'Serializer -> SERIALIZER SerializerRest'
p407
S'Serializer'
p408
I2
S'p_Serializer'
p409
S'..\\..\\..\\..\\..\\tools\\idl_parser\\idl_parser.py'
p410
I478
tp411
a(S'SerializerRest -> ReturnType OperationRest'
p412
S'SerializerRest'
p413
I2
S'p_SerializerRest'
p414
S'..\\..\\..\\..\\..\\tools\\idl_parser\\idl_parser.py'
p415
I485
tp416
a(S'SerializerRest -> = SerializationPattern ;'
p417
g413
I3
g414
g415
I486
tp418
a(S'SerializerRest -> ;'
p419
g413
I1
g414
g415
I487
tp420
a(S'SerializationPattern -> { SerializationPatternMap }'
p421
S'SerializationPattern'
p422
I3
S'p_SerializationPattern'
p423
S'..\\..\\..\\..\\..\\tools\\idl_parser\\idl_parser.py'
p424
I496
tp425
a(S'SerializationPattern -> [ SerializationPatternList ]'
p426
g422
I3
g423
g424
I497
tp427
a(S'SerializationPattern -> identifier'
p428
g422
I1
g423
g424
I498
tp429
a(S'SerializationPatternMap -> GETTER'
p430
S'SerializationPatternMap'
p431
I1
S'p_SerializationPatternMap'
p432
S'..\\..\\..\\..\\..\\tools\\idl_parser\\idl_parser.py'
p433
I509
tp434
a(S'SerializationPatternMap -> ATTRIBUTE'
p435
g431
I1
g432
g433
I510
tp436
a(S'SerializationPatternMap -> INHERIT , ATTRIBUTE'
p437
g431
I3
g432
g433
I511
tp438
a(S'SerializationPatternMap -> INHERIT Identifiers'
p439
g431
I2
g432
g433
I512
tp440
a(S'SerializationPatternMap -> identifier Identifiers'
p441
g431
I2
g432
g433
I513
tp442
a(S'SerializationPatternMap -> <empty>'
p443
g431
I0
g432
g433
I514
tp444
a(S'SerializationPatternList -> GETTER'
p445
S'SerializationPatternList'
p446
I1
S'p_SerializationPatternList'
p447
S'..\\..\\..\\..\\..\\tools\\idl_parser\\idl_parser.py'
p448
I534
tp449
a(S'SerializationPatternList -> identifier Identifiers'
p450
g446
I2
g447
g448
I535
tp451
a(S'SerializationPatternList -> <empty>'
p452
g446
I0
g447
g448
I536
tp453
a(S'Stringifier -> STRINGIFIER StringifierRest'
p454
S'Stringifier'
p455
I2
S'p_Stringifier'
p456
S'..\\..\\..\\..\\..\\tools\\idl_parser\\idl_parser.py'
p457
I547
tp458
a(S'StringifierRest -> AttributeRest'
p459
S'StringifierRest'
p460
I1
S'p_StringifierRest'
p461
S'..\\..\\..\\..\\..\\tools\\idl_parser\\idl_parser.py'
p462
I552
tp463
a(S'StringifierRest -> ReturnType OperationRest'
p464
g460
I2
g461
g462
I553
tp465
a(S'StringifierRest -> ;'
p466
g460
I1
g461
g462
I554
tp467
a(S'StaticMember -> STATIC StaticMemberRest'
p468
S'StaticMember'
p469
I2
S'p_StaticMember'
p470
S'..\\..\\..\\..\\..\\tools\\idl_parser\\idl_parser.py'
p471
I563
tp472
a(S'StaticMemberRest -> ReadOnly AttributeRest'
p473
S'StaticMemberRest'
p474
I2
S'p_StaticMemberRest'
p475
S'..\\..\\..\\..\\..\\tools\\idl_parser\\idl_parser.py'
p476
I569
tp477
a(S'StaticMemberRest -> ReturnType OperationRest'
p478
g474
I2
g475
g476
I570
tp479
a(S'ReadonlyMember -> READONLY ReadonlyMemberRest'
p480
S'ReadonlyMember'
p481
I2
S'p_ReadonlyMember'
p482
S'..\\..\\..\\..\\..\\tools\\idl_parser\\idl_parser.py'
p483
I579
tp484
a(S'ReadonlyMemberRest -> AttributeRest'
p485
S'ReadonlyMemberRest'
p486
I1
S'p_ReadonlyMemberRest'
p487
S'..\\..\\..\\..\\..\\tools\\idl_parser\\idl_parser.py'
p488
I585
tp489
a(S'ReadonlyMemberRest -> MaplikeRest'
p490
g486
I1
g487
g488
I586
tp491
a(S'ReadonlyMemberRest -> SetlikeRest'
p492
g486
I1
g487
g488
I587
tp493
a(S'ReadWriteAttribute -> INHERIT ReadOnly AttributeRest'
p494
S'ReadWriteAttribute'
p495
I3
S'p_ReadWriteAttribute'
p496
S'..\\..\\..\\..\\..\\tools\\idl_parser\\idl_parser.py'
p497
I592
tp498
a(S'ReadWriteAttribute -> AttributeRest'
p499
g495
I1
g496
g497
I593
tp500
a(S'AttributeRest -> ATTRIBUTE Type AttributeName ;'
p501
S'AttributeRest'
p502
I4
S'p_AttributeRest'
p503
S'..\\..\\..\\..\\..\\tools\\idl_parser\\idl_parser.py'
p504
I603
tp505
a(S'AttributeName -> AttributeNameKeyword'
p506
S'AttributeName'
p507
I1
S'p_AttributeName'
p508
S'..\\..\\..\\..\\..\\tools\\idl_parser\\idl_parser.py'
p509
I608
tp510
a(S'AttributeName -> identifier'
p511
g507
I1
g508
g509
I609
tp512
a(S'AttributeNameKeyword -> REQUIRED'
p513
S'AttributeNameKeyword'
p514
I1
S'p_AttributeNameKeyword'
p515
S'..\\..\\..\\..\\..\\tools\\idl_parser\\idl_parser.py'
p516
I614
tp517
a(S'ReadOnly -> READONLY'
p518
S'ReadOnly'
p519
I1
S'p_ReadOnly'
p520
S'..\\..\\..\\..\\..\\tools\\idl_parser\\idl_parser.py'
p521
I621
tp522
a(S'ReadOnly -> <empty>'
p523
g519
I0
g520
g521
I622
tp524
a(S'Operation -> ReturnType OperationRest'
p525
S'Operation'
p526
I2
S'p_Operation'
p527
S'..\\..\\..\\..\\..\\tools\\idl_parser\\idl_parser.py'
p528
I628
tp529
a(S'Operation -> SpecialOperation'
p530
g526
I1
g527
g528
I629
tp531
a(S'SpecialOperation -> Special Specials ReturnType OperationRest'
p532
S'SpecialOperation'
p533
I4
S'p_SpecialOperation'
p534
S'..\\..\\..\\..\\..\\tools\\idl_parser\\idl_parser.py'
p535
I638
tp536
a(S'Specials -> Special Specials'
p537
S'Specials'
p538
I2
S'p_Specials'
p539
S'..\\..\\..\\..\\..\\tools\\idl_parser\\idl_parser.py'
p540
I644
tp541
a(S'Specials -> <empty>'
p542
g538
I0
g539
g540
I645
tp543
a(S'Special -> GETTER'
p544
S'Special'
p545
I1
S'p_Special'
p546
S'..\\..\\..\\..\\..\\tools\\idl_parser\\idl_parser.py'
p547
I651
tp548
a(S'Special -> SETTER'
p549
g545
I1
g546
g547
I652
tp550
a(S'Special -> CREATOR'
p551
g545
I1
g546
g547
I653
tp552
a(S'Special -> DELETER'
p553
g545
I1
g546
g547
I654
tp554
a(S'Special -> LEGACYCALLER'
p555
g545
I1
g546
g547
I655
tp556
a(S'OperationRest -> OptionalIdentifier ( ArgumentList ) ;'
p557
S'OperationRest'
p558
I5
S'p_OperationRest'
p559
S'..\\..\\..\\..\\..\\tools\\idl_parser\\idl_parser.py'
p560
I660
tp561
a(S'OptionalIdentifier -> identifier'
p562
S'OptionalIdentifier'
p563
I1
S'p_OptionalIdentifier'
p564
S'..\\..\\..\\..\\..\\tools\\idl_parser\\idl_parser.py'
p565
I666
tp566
a(S'OptionalIdentifier -> <empty>'
p567
g563
I0
g564
g565
I667
tp568
a(S'ArgumentList -> Argument Arguments'
p569
S'ArgumentList'
p570
I2
S'p_ArgumentList'
p571
S'..\\..\\..\\..\\..\\tools\\idl_parser\\idl_parser.py'
p572
I675
tp573
a(S'ArgumentList -> <empty>'
p574
g570
I0
g571
g572
I676
tp575
a(S'ArgumentList -> error'
p576
S'ArgumentList'
p577
I1
S'p_ArgumentListError'
p578
S'..\\..\\..\\..\\..\\tools\\idl_parser\\idl_parser.py'
p579
I682
tp580
a(S'Arguments -> , Argument Arguments'
p581
S'Arguments'
p582
I3
S'p_Arguments'
p583
S'..\\..\\..\\..\\..\\tools\\idl_parser\\idl_parser.py'
p584
I687
tp585
a(S'Arguments -> <empty>'
p586
g582
I0
g583
g584
I688
tp587
a(S'Arguments -> , error'
p588
S'Arguments'
p589
I2
S'p_ArgumentsError'
p590
S'..\\..\\..\\..\\..\\tools\\idl_parser\\idl_parser.py'
p591
I694
tp592
a(S'Argument -> ExtendedAttributeList OptionalOrRequiredArgument'
p593
S'Argument'
p594
I2
S'p_Argument'
p595
S'..\\..\\..\\..\\..\\tools\\idl_parser\\idl_parser.py'
p596
I699
tp597
a(S'OptionalOrRequiredArgument -> OPTIONAL Type ArgumentName Default'
p598
S'OptionalOrRequiredArgument'
p599
I4
S'p_OptionalOrRequiredArgument'
p600
S'..\\..\\..\\..\\..\\tools\\idl_parser\\idl_parser.py'
p601
I705
tp602
a(S'OptionalOrRequiredArgument -> Type Ellipsis ArgumentName'
p603
g599
I3
g600
g601
I706
tp604
a(S'ArgumentName -> ArgumentNameKeyword'
p605
S'ArgumentName'
p606
I1
S'p_ArgumentName'
p607
S'..\\..\\..\\..\\..\\tools\\idl_parser\\idl_parser.py'
p608
I716
tp609
a(S'ArgumentName -> identifier'
p610
g606
I1
g607
g608
I717
tp611
a(S'Ellipsis -> ELLIPSIS'
p612
S'Ellipsis'
p613
I1
S'p_Ellipsis'
p614
S'..\\..\\..\\..\\..\\tools\\idl_parser\\idl_parser.py'
p615
I722
tp616
a(S'Ellipsis -> <empty>'
p617
g613
I0
g614
g615
I723
tp618
a(S'ExceptionField -> Type identifier ;'
p619
S'ExceptionField'
p620
I3
S'p_ExceptionField'
p621
S'..\\..\\..\\..\\..\\tools\\idl_parser\\idl_parser.py'
p622
I736
tp623
a(S'ExceptionField -> error'
p624
S'ExceptionField'
p625
I1
S'p_ExceptionFieldError'
p626
S'..\\..\\..\\..\\..\\tools\\idl_parser\\idl_parser.py'
p627
I741
tp628
a(S'Iterable -> ITERABLE < Type OptionalType > ;'
p629
S'Iterable'
p630
I6
S'p_Iterable'
p631
S'..\\..\\..\\..\\..\\tools\\idl_parser\\idl_parser.py'
p632
I746
tp633
a(S'Iterable -> LEGACYITERABLE < Type > ;'
p634
g630
I5
g631
g632
I747
tp635
a(S'OptionalType -> , Type'
p636
S'OptionalType'
p637
I2
S'p_OptionalType'
p638
S'..\\..\\..\\..\\..\\tools\\idl_parser\\idl_parser.py'
p639
I756
tp640
a(S'OptionalType -> <empty>'
p641
g637
I0
g638
g639
I757
tp642
a(S'ReadWriteMaplike -> MaplikeRest'
p643
S'ReadWriteMaplike'
p644
I1
S'p_ReadWriteMaplike'
p645
S'..\\..\\..\\..\\..\\tools\\idl_parser\\idl_parser.py'
p646
I763
tp647
a(S'ReadWriteSetlike -> SetlikeRest'
p648
S'ReadWriteSetlike'
p649
I1
S'p_ReadWriteSetlike'
p650
S'..\\..\\..\\..\\..\\tools\\idl_parser\\idl_parser.py'
p651
I768
tp652
a(S'MaplikeRest -> MAPLIKE < Type , Type > ;'
p653
S'MaplikeRest'
p654
I7
S'p_MaplikeRest'
p655
S'..\\..\\..\\..\\..\\tools\\idl_parser\\idl_parser.py'
p656
I773
tp657
a(S'SetlikeRest -> SETLIKE < Type > ;'
p658
S'SetlikeRest'
p659
I5
S'p_SetlikeRest'
p660
S'..\\..\\..\\..\\..\\tools\\idl_parser\\idl_parser.py'
p661
I779
tp662
a(S'ExtendedAttributeListNoComments -> [ ExtendedAttribute ExtendedAttributes ]'
p663
S'ExtendedAttributeListNoComments'
p664
I4
S'p_ExtendedAttributeListNoComments'
p665
S'..\\..\\..\\..\\..\\tools\\idl_parser\\idl_parser.py'
p666
I784
tp667
a(S'ExtendedAttributeListNoComments -> <empty>'
p668
g664
I0
g665
g666
I785
tp669
a(S'ArgumentNameKeyword -> ATTRIBUTE'
p670
S'ArgumentNameKeyword'
p671
I1
S'p_ArgumentNameKeyword'
p672
S'..\\..\\..\\..\\..\\tools\\idl_parser\\idl_parser.py'
p673
I826
tp674
a(S'ArgumentNameKeyword -> CALLBACK'
p675
g671
I1
g672
g673
I827
tp676
a(S'ArgumentNameKeyword -> CONST'
p677
g671
I1
g672
g673
I828
tp678
a(S'ArgumentNameKeyword -> CREATOR'
p679
g671
I1
g672
g673
I829
tp680
a(S'ArgumentNameKeyword -> DELETER'
p681
g671
I1
g672
g673
I830
tp682
a(S'ArgumentNameKeyword -> DICTIONARY'
p683
g671
I1
g672
g673
I831
tp684
a(S'ArgumentNameKeyword -> ENUM'
p685
g671
I1
g672
g673
I832
tp686
a(S'ArgumentNameKeyword -> EXCEPTION'
p687
g671
I1
g672
g673
I833
tp688
a(S'ArgumentNameKeyword -> GETTER'
p689
g671
I1
g672
g673
I834
tp690
a(S'ArgumentNameKeyword -> IMPLEMENTS'
p691
g671
I1
g672
g673
I835
tp692
a(S'ArgumentNameKeyword -> INHERIT'
p693
g671
I1
g672
g673
I836
tp694
a(S'ArgumentNameKeyword -> LEGACYCALLER'
p695
g671
I1
g672
g673
I837
tp696
a(S'ArgumentNameKeyword -> PARTIAL'
p697
g671
I1
g672
g673
I838
tp698
a(S'ArgumentNameKeyword -> SERIALIZER'
p699
g671
I1
g672
g673
I839
tp700
a(S'ArgumentNameKeyword -> SETTER'
p701
g671
I1
g672
g673
I840
tp702
a(S'ArgumentNameKeyword -> STATIC'
p703
g671
I1
g672
g673
I841
tp704
a(S'ArgumentNameKeyword -> STRINGIFIER'
p705
g671
I1
g672
g673
I842
tp706
a(S'ArgumentNameKeyword -> TYPEDEF'
p707
g671
I1
g672
g673
I843
tp708
a(S'ArgumentNameKeyword -> UNRESTRICTED'
p709
g671
I1
g672
g673
I844
tp710
a(S'Type -> SingleType'
p711
S'Type'
p712
I1
S'p_Type'
p713
S'..\\..\\..\\..\\..\\tools\\idl_parser\\idl_parser.py'
p714
I851
tp715
a(S'Type -> UnionType TypeSuffix'
p716
g712
I2
g713
g714
I852
tp717
a(S'SingleType -> NonAnyType'
p718
S'SingleType'
p719
I1
S'p_SingleType'
p720
S'..\\..\\..\\..\\..\\tools\\idl_parser\\idl_parser.py'
p721
I860
tp722
a(S'SingleType -> ANY TypeSuffixStartingWithArray'
p723
g719
I2
g720
g721
I861
tp724
a(S'NonAnyType -> PrimitiveType TypeSuffix'
p725
S'NonAnyType'
p726
I2
S'p_NonAnyType'
p727
S'..\\..\\..\\..\\..\\tools\\idl_parser\\idl_parser.py'
p728
I886
tp729
a(S'NonAnyType -> PromiseType Null'
p730
g726
I2
g727
g728
I887
tp731
a(S'NonAnyType -> identifier TypeSuffix'
p732
g726
I2
g727
g728
I888
tp733
a(S'NonAnyType -> SEQUENCE < Type > Null'
p734
g726
I5
g727
g728
I889
tp735
a(S'ConstType -> PrimitiveType Null'
p736
S'ConstType'
p737
I2
S'p_ConstType'
p738
S'..\\..\\..\\..\\..\\tools\\idl_parser\\idl_parser.py'
p739
I904
tp740
a(S'ConstType -> identifier Null'
p741
g737
I2
g738
g739
I905
tp742
a(S'PrimitiveType -> UnsignedIntegerType'
p743
S'PrimitiveType'
p744
I1
S'p_PrimitiveType'
p745
S'..\\..\\..\\..\\..\\tools\\idl_parser\\idl_parser.py'
p746
I915
tp747
a(S'PrimitiveType -> UnrestrictedFloatType'
p748
g744
I1
g745
g746
I916
tp749
a(S'PrimitiveType -> BOOLEAN'
p750
g744
I1
g745
g746
I917
tp751
a(S'PrimitiveType -> BYTE'
p752
g744
I1
g745
g746
I918
tp753
a(S'PrimitiveType -> OCTET'
p754
g744
I1
g745
g746
I919
tp755
a(S'PrimitiveType -> BYTESTRING'
p756
g744
I1
g745
g746
I920
tp757
a(S'PrimitiveType -> DOMSTRING'
p758
g744
I1
g745
g746
I921
tp759
a(S'PrimitiveType -> OBJECT'
p760
g744
I1
g745
g746
I922
tp761
a(S'PrimitiveType -> DATE'
p762
g744
I1
g745
g746
I923
tp763
a(S'PrimitiveType -> REGEXP'
p764
g744
I1
g745
g746
I924
tp765
a(S'UnrestrictedFloatType -> UNRESTRICTED FloatType'
p766
S'UnrestrictedFloatType'
p767
I2
S'p_UnrestrictedFloatType'
p768
S'..\\..\\..\\..\\..\\tools\\idl_parser\\idl_parser.py'
p769
I933
tp770
a(S'UnrestrictedFloatType -> FloatType'
p771
g767
I1
g768
g769
I934
tp772
a(S'FloatType -> FLOAT'
p773
S'FloatType'
p774
I1
S'p_FloatType'
p775
S'..\\..\\..\\..\\..\\tools\\idl_parser\\idl_parser.py'
p776
I945
tp777
a(S'FloatType -> DOUBLE'
p778
g774
I1
g775
g776
I946
tp779
a(S'UnsignedIntegerType -> UNSIGNED IntegerType'
p780
S'UnsignedIntegerType'
p781
I2
S'p_UnsignedIntegerType'
p782
S'..\\..\\..\\..\\..\\tools\\idl_parser\\idl_parser.py'
p783
I951
tp784
a(S'UnsignedIntegerType -> IntegerType'
p785
g781
I1
g782
g783
I952
tp786
a(S'IntegerType -> SHORT'
p787
S'IntegerType'
p788
I1
S'p_IntegerType'
p789
S'..\\..\\..\\..\\..\\tools\\idl_parser\\idl_parser.py'
p790
I960
tp791
a(S'IntegerType -> LONG OptionalLong'
p792
g788
I2
g789
g790
I961
tp793
a(S'OptionalLong -> LONG'
p794
S'OptionalLong'
p795
I1
S'p_OptionalLong'
p796
S'..\\..\\..\\..\\..\\tools\\idl_parser\\idl_parser.py'
p797
I969
tp798
a(S'OptionalLong -> <empty>'
p799
g795
I0
g796
g797
I970
tp800
a(S'PromiseType -> PROMISE < ReturnType >'
p801
S'PromiseType'
p802
I4
S'p_PromiseType'
p803
S'..\\..\\..\\..\\..\\tools\\idl_parser\\idl_parser.py'
p804
I978
tp805
a(S'PromiseType -> PROMISE'
p806
g802
I1
g803
g804
I979
tp807
a(S'TypeSuffixStartingWithArray -> [ ] TypeSuffix'
p808
S'TypeSuffixStartingWithArray'
p809
I3
S'p_TypeSuffixStartingWithArray'
p810
S'..\\..\\..\\..\\..\\tools\\idl_parser\\idl_parser.py'
p811
I1008
tp812
a(S'TypeSuffixStartingWithArray -> <empty>'
p813
g809
I0
g810
g811
I1009
tp814
a(S'Null -> ?'
p815
S'Null'
p816
I1
S'p_Null'
p817
S'..\\..\\..\\..\\..\\tools\\idl_parser\\idl_parser.py'
p818
I1015
tp819
a(S'Null -> <empty>'
p820
g816
I0
g817
g818
I1016
tp821
a(S'ReturnType -> Type'
p822
S'ReturnType'
p823
I1
S'p_ReturnType'
p824
S'..\\..\\..\\..\\..\\tools\\idl_parser\\idl_parser.py'
p825
I1022
tp826
a(S'ReturnType -> VOID'
p827
g823
I1
g824
g825
I1023
tp828
a(S'IdentifierList -> identifier Identifiers'
p829
S'IdentifierList'
p830
I2
S'p_IdentifierList'
p831
S'..\\..\\..\\..\\..\\tools\\idl_parser\\idl_parser.py'
p832
I1032
tp833
a(S'Identifiers -> , identifier Identifiers'
p834
S'Identifiers'
p835
I3
S'p_Identifiers'
p836
S'..\\..\\..\\..\\..\\tools\\idl_parser\\idl_parser.py'
p837
I1037
tp838
a(S'Identifiers -> <empty>'
p839
g835
I0
g836
g837
I1038
tp840
a(S'ExtendedAttributeNoArgs -> identifier'
p841
S'ExtendedAttributeNoArgs'
p842
I1
S'p_ExtendedAttributeNoArgs'
p843
S'..\\..\\..\\..\\..\\tools\\idl_parser\\idl_parser.py'
p844
I1044
tp845
a(S'ExtendedAttributeArgList -> identifier ( ArgumentList )'
p846
S'ExtendedAttributeArgList'
p847
I4
S'p_ExtendedAttributeArgList'
p848
S'..\\..\\..\\..\\..\\tools\\idl_parser\\idl_parser.py'
p849
I1049
tp850
a(S'ExtendedAttributeIdent -> identifier = identifier'
p851
S'ExtendedAttributeIdent'
p852
I3
S'p_ExtendedAttributeIdent'
p853
S'..\\..\\..\\..\\..\\tools\\idl_parser\\idl_parser.py'
p854
I1055
tp855
a(S'ExtendedAttributeIdentList -> identifier = ( IdentifierList )'
p856
S'ExtendedAttributeIdentList'
p857
I5
S'p_ExtendedAttributeIdentList'
p858
S'..\\..\\..\\..\\..\\tools\\idl_parser\\idl_parser.py'
p859
I1061
tp860
a(S'ExtendedAttributeNamedArgList -> identifier = identifier ( ArgumentList )'
p861
S'ExtendedAttributeNamedArgList'
p862
I6
S'p_ExtendedAttributeNamedArgList'
p863
S'..\\..\\..\\..\\..\\tools\\idl_parser\\idl_parser.py'
p864
I1067
tp865
a.